ARM GAS  /tmp/ccRVpOvn.s 			page 1


   1              		.syntax unified
   2              		.cpu cortex-m3
   3              		.fpu softvfp
   4              		.eabi_attribute 20, 1
   5              		.eabi_attribute 21, 1
   6              		.eabi_attribute 23, 3
   7              		.eabi_attribute 24, 1
   8              		.eabi_attribute 25, 1
   9              		.eabi_attribute 26, 1
  10              		.eabi_attribute 30, 4
  11              		.eabi_attribute 34, 1
  12              		.eabi_attribute 18, 4
  13              		.thumb
  14              		.file	"stm32f1xx_hal_tim.c"
  15              		.section	.text.TIM_OC1_SetConfig,"ax",%progbits
  16              		.align	1
  17              		.thumb
  18              		.thumb_func
  20              	TIM_OC1_SetConfig:
  21              		@ args = 0, pretend = 0, frame = 0
  22              		@ frame_needed = 0, uses_anonymous_args = 0
  23 0000 036A     		ldr	r3, [r0, #32]
  24 0002 70B5     		push	{r4, r5, r6, lr}
  25 0004 23F00103 		bic	r3, r3, #1
  26 0008 0362     		str	r3, [r0, #32]
  27 000a 036A     		ldr	r3, [r0, #32]
  28 000c 4268     		ldr	r2, [r0, #4]
  29 000e 8569     		ldr	r5, [r0, #24]
  30 0010 25F07304 		bic	r4, r5, #115
  31 0014 0D68     		ldr	r5, [r1]
  32 0016 2543     		orrs	r5, r5, r4
  33 0018 23F00204 		bic	r4, r3, #2
  34 001c 8B68     		ldr	r3, [r1, #8]
  35 001e 2343     		orrs	r3, r3, r4
  36 0020 0E4C     		ldr	r4, .L6
  37 0022 A042     		cmp	r0, r4
  38 0024 02D0     		beq	.L2
  39 0026 0E4E     		ldr	r6, .L6+4
  40 0028 B042     		cmp	r0, r6
  41 002a 10D1     		bne	.L3
  42              	.L2:
  43 002c CE68     		ldr	r6, [r1, #12]
  44 002e 23F00803 		bic	r3, r3, #8
  45 0032 3343     		orrs	r3, r3, r6
  46 0034 A042     		cmp	r0, r4
  47 0036 23F00403 		bic	r3, r3, #4
  48 003a 02D0     		beq	.L4
  49 003c 084C     		ldr	r4, .L6+4
  50 003e A042     		cmp	r0, r4
  51 0040 05D1     		bne	.L3
  52              	.L4:
  53 0042 8E69     		ldr	r6, [r1, #24]
  54 0044 4C69     		ldr	r4, [r1, #20]
  55 0046 22F44072 		bic	r2, r2, #768
  56 004a 3443     		orrs	r4, r4, r6
  57 004c 2243     		orrs	r2, r2, r4
  58              	.L3:
ARM GAS  /tmp/ccRVpOvn.s 			page 2


  59 004e 4260     		str	r2, [r0, #4]
  60 0050 4A68     		ldr	r2, [r1, #4]
  61 0052 8561     		str	r5, [r0, #24]
  62 0054 4263     		str	r2, [r0, #52]
  63 0056 0362     		str	r3, [r0, #32]
  64 0058 70BD     		pop	{r4, r5, r6, pc}
  65              	.L7:
  66 005a 00BF     		.align	2
  67              	.L6:
  68 005c 002C0140 		.word	1073818624
  69 0060 00340140 		.word	1073820672
  71              		.section	.text.TIM_OC3_SetConfig,"ax",%progbits
  72              		.align	1
  73              		.thumb
  74              		.thumb_func
  76              	TIM_OC3_SetConfig:
  77              		@ args = 0, pretend = 0, frame = 0
  78              		@ frame_needed = 0, uses_anonymous_args = 0
  79 0000 036A     		ldr	r3, [r0, #32]
  80 0002 30B5     		push	{r4, r5, lr}
  81 0004 23F48073 		bic	r3, r3, #256
  82 0008 0362     		str	r3, [r0, #32]
  83 000a 036A     		ldr	r3, [r0, #32]
  84 000c 4268     		ldr	r2, [r0, #4]
  85 000e C469     		ldr	r4, [r0, #28]
  86 0010 0D68     		ldr	r5, [r1]
  87 0012 24F07304 		bic	r4, r4, #115
  88 0016 2C43     		orrs	r4, r4, r5
  89 0018 8D68     		ldr	r5, [r1, #8]
  90 001a 23F40073 		bic	r3, r3, #512
  91 001e 43EA0523 		orr	r3, r3, r5, lsl #8
  92 0022 114D     		ldr	r5, .L12
  93 0024 A842     		cmp	r0, r5
  94 0026 03D0     		beq	.L9
  95 0028 05F50065 		add	r5, r5, #2048
  96 002c A842     		cmp	r0, r5
  97 002e 15D1     		bne	.L10
  98              	.L9:
  99 0030 CD68     		ldr	r5, [r1, #12]
 100 0032 23F40063 		bic	r3, r3, #2048
 101 0036 43EA0523 		orr	r3, r3, r5, lsl #8
 102 003a 0B4D     		ldr	r5, .L12
 103 003c 23F48063 		bic	r3, r3, #1024
 104 0040 A842     		cmp	r0, r5
 105 0042 03D0     		beq	.L11
 106 0044 05F50065 		add	r5, r5, #2048
 107 0048 A842     		cmp	r0, r5
 108 004a 07D1     		bne	.L10
 109              	.L11:
 110 004c 4D69     		ldr	r5, [r1, #20]
 111 004e 22F44052 		bic	r2, r2, #12288
 112 0052 42EA0512 		orr	r2, r2, r5, lsl #4
 113 0056 8D69     		ldr	r5, [r1, #24]
 114 0058 42EA0512 		orr	r2, r2, r5, lsl #4
 115              	.L10:
 116 005c 4260     		str	r2, [r0, #4]
 117 005e 4A68     		ldr	r2, [r1, #4]
ARM GAS  /tmp/ccRVpOvn.s 			page 3


 118 0060 C461     		str	r4, [r0, #28]
 119 0062 C263     		str	r2, [r0, #60]
 120 0064 0362     		str	r3, [r0, #32]
 121 0066 30BD     		pop	{r4, r5, pc}
 122              	.L13:
 123              		.align	2
 124              	.L12:
 125 0068 002C0140 		.word	1073818624
 127              		.section	.text.TIM_OC4_SetConfig,"ax",%progbits
 128              		.align	1
 129              		.thumb
 130              		.thumb_func
 132              	TIM_OC4_SetConfig:
 133              		@ args = 0, pretend = 0, frame = 0
 134              		@ frame_needed = 0, uses_anonymous_args = 0
 135 0000 036A     		ldr	r3, [r0, #32]
 136 0002 30B5     		push	{r4, r5, lr}
 137 0004 23F48053 		bic	r3, r3, #4096
 138 0008 0362     		str	r3, [r0, #32]
 139 000a 036A     		ldr	r3, [r0, #32]
 140 000c 4468     		ldr	r4, [r0, #4]
 141 000e C269     		ldr	r2, [r0, #28]
 142 0010 0D68     		ldr	r5, [r1]
 143 0012 22F4E642 		bic	r2, r2, #29440
 144 0016 42EA0522 		orr	r2, r2, r5, lsl #8
 145 001a 8D68     		ldr	r5, [r1, #8]
 146 001c 23F40053 		bic	r3, r3, #8192
 147 0020 43EA0533 		orr	r3, r3, r5, lsl #12
 148 0024 084D     		ldr	r5, .L17
 149 0026 A842     		cmp	r0, r5
 150 0028 03D0     		beq	.L15
 151 002a 05F50065 		add	r5, r5, #2048
 152 002e A842     		cmp	r0, r5
 153 0030 04D1     		bne	.L16
 154              	.L15:
 155 0032 4D69     		ldr	r5, [r1, #20]
 156 0034 24F48044 		bic	r4, r4, #16384
 157 0038 44EA8514 		orr	r4, r4, r5, lsl #6
 158              	.L16:
 159 003c 4460     		str	r4, [r0, #4]
 160 003e C261     		str	r2, [r0, #28]
 161 0040 4A68     		ldr	r2, [r1, #4]
 162 0042 0264     		str	r2, [r0, #64]
 163 0044 0362     		str	r3, [r0, #32]
 164 0046 30BD     		pop	{r4, r5, pc}
 165              	.L18:
 166              		.align	2
 167              	.L17:
 168 0048 002C0140 		.word	1073818624
 170              		.section	.text.HAL_TIM_Base_MspInit,"ax",%progbits
 171              		.align	1
 172              		.weak	HAL_TIM_Base_MspInit
 173              		.thumb
 174              		.thumb_func
 176              	HAL_TIM_Base_MspInit:
 177              		@ args = 0, pretend = 0, frame = 0
 178              		@ frame_needed = 0, uses_anonymous_args = 0
ARM GAS  /tmp/ccRVpOvn.s 			page 4


 179              		@ link register save eliminated.
 180 0000 7047     		bx	lr
 182              		.section	.text.HAL_TIM_Base_MspDeInit,"ax",%progbits
 183              		.align	1
 184              		.weak	HAL_TIM_Base_MspDeInit
 185              		.thumb
 186              		.thumb_func
 188              	HAL_TIM_Base_MspDeInit:
 189              		@ args = 0, pretend = 0, frame = 0
 190              		@ frame_needed = 0, uses_anonymous_args = 0
 191              		@ link register save eliminated.
 192 0000 7047     		bx	lr
 194              		.section	.text.HAL_TIM_Base_DeInit,"ax",%progbits
 195              		.align	1
 196              		.global	HAL_TIM_Base_DeInit
 197              		.thumb
 198              		.thumb_func
 200              	HAL_TIM_Base_DeInit:
 201              		@ args = 0, pretend = 0, frame = 0
 202              		@ frame_needed = 0, uses_anonymous_args = 0
 203 0000 41F21112 		movw	r2, #4369
 204 0004 0223     		movs	r3, #2
 205 0006 10B5     		push	{r4, lr}
 206 0008 80F83D30 		strb	r3, [r0, #61]
 207 000c 0368     		ldr	r3, [r0]
 208 000e 0446     		mov	r4, r0
 209 0010 196A     		ldr	r1, [r3, #32]
 210 0012 0A40     		ands	r2, r2, r1
 211 0014 42B9     		cbnz	r2, .L22
 212 0016 40F24442 		movw	r2, #1092
 213 001a 196A     		ldr	r1, [r3, #32]
 214 001c 0A40     		ands	r2, r2, r1
 215 001e 1AB9     		cbnz	r2, .L22
 216 0020 1A68     		ldr	r2, [r3]
 217 0022 22F00102 		bic	r2, r2, #1
 218 0026 1A60     		str	r2, [r3]
 219              	.L22:
 220 0028 2046     		mov	r0, r4
 221 002a FFF7FEFF 		bl	HAL_TIM_Base_MspDeInit
 222 002e 0020     		movs	r0, #0
 223 0030 84F83D00 		strb	r0, [r4, #61]
 224 0034 84F83C00 		strb	r0, [r4, #60]
 225 0038 10BD     		pop	{r4, pc}
 227              		.section	.text.HAL_TIM_Base_Start,"ax",%progbits
 228              		.align	1
 229              		.global	HAL_TIM_Base_Start
 230              		.thumb
 231              		.thumb_func
 233              	HAL_TIM_Base_Start:
 234              		@ args = 0, pretend = 0, frame = 0
 235              		@ frame_needed = 0, uses_anonymous_args = 0
 236              		@ link register save eliminated.
 237 0000 0223     		movs	r3, #2
 238 0002 80F83D30 		strb	r3, [r0, #61]
 239 0006 0368     		ldr	r3, [r0]
 240 0008 9A68     		ldr	r2, [r3, #8]
 241 000a 02F00702 		and	r2, r2, #7
ARM GAS  /tmp/ccRVpOvn.s 			page 5


 242 000e 062A     		cmp	r2, #6
 243 0010 1EBF     		ittt	ne
 244 0012 1A68     		ldrne	r2, [r3]
 245 0014 42F00102 		orrne	r2, r2, #1
 246 0018 1A60     		strne	r2, [r3]
 247 001a 0123     		movs	r3, #1
 248 001c 80F83D30 		strb	r3, [r0, #61]
 249 0020 0020     		movs	r0, #0
 250 0022 7047     		bx	lr
 252              		.section	.text.HAL_TIM_Base_Stop,"ax",%progbits
 253              		.align	1
 254              		.global	HAL_TIM_Base_Stop
 255              		.thumb
 256              		.thumb_func
 258              	HAL_TIM_Base_Stop:
 259              		@ args = 0, pretend = 0, frame = 0
 260              		@ frame_needed = 0, uses_anonymous_args = 0
 261              		@ link register save eliminated.
 262 0000 41F21112 		movw	r2, #4369
 263 0004 0223     		movs	r3, #2
 264 0006 80F83D30 		strb	r3, [r0, #61]
 265 000a 0368     		ldr	r3, [r0]
 266 000c 196A     		ldr	r1, [r3, #32]
 267 000e 0A40     		ands	r2, r2, r1
 268 0010 42B9     		cbnz	r2, .L29
 269 0012 40F24442 		movw	r2, #1092
 270 0016 196A     		ldr	r1, [r3, #32]
 271 0018 0A40     		ands	r2, r2, r1
 272 001a 1AB9     		cbnz	r2, .L29
 273 001c 1A68     		ldr	r2, [r3]
 274 001e 22F00102 		bic	r2, r2, #1
 275 0022 1A60     		str	r2, [r3]
 276              	.L29:
 277 0024 0123     		movs	r3, #1
 278 0026 80F83D30 		strb	r3, [r0, #61]
 279 002a 0020     		movs	r0, #0
 280 002c 7047     		bx	lr
 282              		.section	.text.HAL_TIM_Base_Start_IT,"ax",%progbits
 283              		.align	1
 284              		.global	HAL_TIM_Base_Start_IT
 285              		.thumb
 286              		.thumb_func
 288              	HAL_TIM_Base_Start_IT:
 289              		@ args = 0, pretend = 0, frame = 0
 290              		@ frame_needed = 0, uses_anonymous_args = 0
 291              		@ link register save eliminated.
 292 0000 0368     		ldr	r3, [r0]
 293 0002 0020     		movs	r0, #0
 294 0004 DA68     		ldr	r2, [r3, #12]
 295 0006 42F00102 		orr	r2, r2, #1
 296 000a DA60     		str	r2, [r3, #12]
 297 000c 9A68     		ldr	r2, [r3, #8]
 298 000e 02F00702 		and	r2, r2, #7
 299 0012 062A     		cmp	r2, #6
 300 0014 1EBF     		ittt	ne
 301 0016 1A68     		ldrne	r2, [r3]
 302 0018 42F00102 		orrne	r2, r2, #1
ARM GAS  /tmp/ccRVpOvn.s 			page 6


 303 001c 1A60     		strne	r2, [r3]
 304 001e 7047     		bx	lr
 306              		.section	.text.HAL_TIM_Base_Stop_IT,"ax",%progbits
 307              		.align	1
 308              		.global	HAL_TIM_Base_Stop_IT
 309              		.thumb
 310              		.thumb_func
 312              	HAL_TIM_Base_Stop_IT:
 313              		@ args = 0, pretend = 0, frame = 0
 314              		@ frame_needed = 0, uses_anonymous_args = 0
 315              		@ link register save eliminated.
 316 0000 0368     		ldr	r3, [r0]
 317 0002 DA68     		ldr	r2, [r3, #12]
 318 0004 22F00102 		bic	r2, r2, #1
 319 0008 DA60     		str	r2, [r3, #12]
 320 000a 41F21112 		movw	r2, #4369
 321 000e 196A     		ldr	r1, [r3, #32]
 322 0010 0A40     		ands	r2, r2, r1
 323 0012 42B9     		cbnz	r2, .L36
 324 0014 40F24442 		movw	r2, #1092
 325 0018 196A     		ldr	r1, [r3, #32]
 326 001a 0A40     		ands	r2, r2, r1
 327 001c 1AB9     		cbnz	r2, .L36
 328 001e 1A68     		ldr	r2, [r3]
 329 0020 22F00102 		bic	r2, r2, #1
 330 0024 1A60     		str	r2, [r3]
 331              	.L36:
 332 0026 0020     		movs	r0, #0
 333 0028 7047     		bx	lr
 335              		.section	.text.HAL_TIM_Base_Start_DMA,"ax",%progbits
 336              		.align	1
 337              		.global	HAL_TIM_Base_Start_DMA
 338              		.thumb
 339              		.thumb_func
 341              	HAL_TIM_Base_Start_DMA:
 342              		@ args = 0, pretend = 0, frame = 0
 343              		@ frame_needed = 0, uses_anonymous_args = 0
 344 0000 10B5     		push	{r4, lr}
 345 0002 0446     		mov	r4, r0
 346 0004 90F83D00 		ldrb	r0, [r0, #61]	@ zero_extendqisi2
 347 0008 1346     		mov	r3, r2
 348 000a C0B2     		uxtb	r0, r0
 349 000c 0228     		cmp	r0, #2
 350 000e 25D0     		beq	.L38
 351 0010 94F83D20 		ldrb	r2, [r4, #61]	@ zero_extendqisi2
 352 0014 012A     		cmp	r2, #1
 353 0016 06D1     		bne	.L39
 354 0018 11B9     		cbnz	r1, .L40
 355 001a 0BB1     		cbz	r3, .L40
 356              	.L41:
 357 001c 0120     		movs	r0, #1
 358 001e 10BD     		pop	{r4, pc}
 359              	.L40:
 360 0020 0222     		movs	r2, #2
 361 0022 84F83D20 		strb	r2, [r4, #61]
 362              	.L39:
 363 0026 206A     		ldr	r0, [r4, #32]
ARM GAS  /tmp/ccRVpOvn.s 			page 7


 364 0028 0D4A     		ldr	r2, .L49
 365 002a 8262     		str	r2, [r0, #40]
 366 002c 0D4A     		ldr	r2, .L49+4
 367 002e C262     		str	r2, [r0, #44]
 368 0030 0D4A     		ldr	r2, .L49+8
 369 0032 0263     		str	r2, [r0, #48]
 370 0034 2268     		ldr	r2, [r4]
 371 0036 2C32     		adds	r2, r2, #44
 372 0038 FFF7FEFF 		bl	HAL_DMA_Start_IT
 373 003c 0028     		cmp	r0, #0
 374 003e EDD1     		bne	.L41
 375 0040 2368     		ldr	r3, [r4]
 376 0042 DA68     		ldr	r2, [r3, #12]
 377 0044 42F48072 		orr	r2, r2, #256
 378 0048 DA60     		str	r2, [r3, #12]
 379 004a 9A68     		ldr	r2, [r3, #8]
 380 004c 02F00702 		and	r2, r2, #7
 381 0050 062A     		cmp	r2, #6
 382 0052 1EBF     		ittt	ne
 383 0054 1A68     		ldrne	r2, [r3]
 384 0056 42F00102 		orrne	r2, r2, #1
 385 005a 1A60     		strne	r2, [r3]
 386              	.L38:
 387 005c 10BD     		pop	{r4, pc}
 388              	.L50:
 389 005e 00BF     		.align	2
 390              	.L49:
 391 0060 00000000 		.word	TIM_DMAPeriodElapsedCplt
 392 0064 00000000 		.word	TIM_DMAPeriodElapsedHalfCplt
 393 0068 00000000 		.word	TIM_DMAError
 395              		.section	.text.HAL_TIM_Base_Stop_DMA,"ax",%progbits
 396              		.align	1
 397              		.global	HAL_TIM_Base_Stop_DMA
 398              		.thumb
 399              		.thumb_func
 401              	HAL_TIM_Base_Stop_DMA:
 402              		@ args = 0, pretend = 0, frame = 0
 403              		@ frame_needed = 0, uses_anonymous_args = 0
 404 0000 0268     		ldr	r2, [r0]
 405 0002 10B5     		push	{r4, lr}
 406 0004 D368     		ldr	r3, [r2, #12]
 407 0006 0446     		mov	r4, r0
 408 0008 23F48073 		bic	r3, r3, #256
 409 000c D360     		str	r3, [r2, #12]
 410 000e 006A     		ldr	r0, [r0, #32]
 411 0010 FFF7FEFF 		bl	HAL_DMA_Abort_IT
 412 0014 41F21112 		movw	r2, #4369
 413 0018 2368     		ldr	r3, [r4]
 414 001a 196A     		ldr	r1, [r3, #32]
 415 001c 0A40     		ands	r2, r2, r1
 416 001e 42B9     		cbnz	r2, .L52
 417 0020 40F24442 		movw	r2, #1092
 418 0024 196A     		ldr	r1, [r3, #32]
 419 0026 0A40     		ands	r2, r2, r1
 420 0028 1AB9     		cbnz	r2, .L52
 421 002a 1A68     		ldr	r2, [r3]
 422 002c 22F00102 		bic	r2, r2, #1
ARM GAS  /tmp/ccRVpOvn.s 			page 8


 423 0030 1A60     		str	r2, [r3]
 424              	.L52:
 425 0032 0123     		movs	r3, #1
 426 0034 84F83D30 		strb	r3, [r4, #61]
 427 0038 0020     		movs	r0, #0
 428 003a 10BD     		pop	{r4, pc}
 430              		.section	.text.HAL_TIM_OC_MspInit,"ax",%progbits
 431              		.align	1
 432              		.weak	HAL_TIM_OC_MspInit
 433              		.thumb
 434              		.thumb_func
 436              	HAL_TIM_OC_MspInit:
 437              		@ args = 0, pretend = 0, frame = 0
 438              		@ frame_needed = 0, uses_anonymous_args = 0
 439              		@ link register save eliminated.
 440 0000 7047     		bx	lr
 442              		.section	.text.HAL_TIM_OC_MspDeInit,"ax",%progbits
 443              		.align	1
 444              		.weak	HAL_TIM_OC_MspDeInit
 445              		.thumb
 446              		.thumb_func
 448              	HAL_TIM_OC_MspDeInit:
 449              		@ args = 0, pretend = 0, frame = 0
 450              		@ frame_needed = 0, uses_anonymous_args = 0
 451              		@ link register save eliminated.
 452 0000 7047     		bx	lr
 454              		.section	.text.HAL_TIM_OC_DeInit,"ax",%progbits
 455              		.align	1
 456              		.global	HAL_TIM_OC_DeInit
 457              		.thumb
 458              		.thumb_func
 460              	HAL_TIM_OC_DeInit:
 461              		@ args = 0, pretend = 0, frame = 0
 462              		@ frame_needed = 0, uses_anonymous_args = 0
 463 0000 41F21112 		movw	r2, #4369
 464 0004 0223     		movs	r3, #2
 465 0006 10B5     		push	{r4, lr}
 466 0008 80F83D30 		strb	r3, [r0, #61]
 467 000c 0368     		ldr	r3, [r0]
 468 000e 0446     		mov	r4, r0
 469 0010 196A     		ldr	r1, [r3, #32]
 470 0012 0A40     		ands	r2, r2, r1
 471 0014 42B9     		cbnz	r2, .L56
 472 0016 40F24442 		movw	r2, #1092
 473 001a 196A     		ldr	r1, [r3, #32]
 474 001c 0A40     		ands	r2, r2, r1
 475 001e 1AB9     		cbnz	r2, .L56
 476 0020 1A68     		ldr	r2, [r3]
 477 0022 22F00102 		bic	r2, r2, #1
 478 0026 1A60     		str	r2, [r3]
 479              	.L56:
 480 0028 2046     		mov	r0, r4
 481 002a FFF7FEFF 		bl	HAL_TIM_OC_MspDeInit
 482 002e 0020     		movs	r0, #0
 483 0030 84F83D00 		strb	r0, [r4, #61]
 484 0034 84F83C00 		strb	r0, [r4, #60]
 485 0038 10BD     		pop	{r4, pc}
ARM GAS  /tmp/ccRVpOvn.s 			page 9


 487              		.section	.text.HAL_TIM_PWM_MspInit,"ax",%progbits
 488              		.align	1
 489              		.weak	HAL_TIM_PWM_MspInit
 490              		.thumb
 491              		.thumb_func
 493              	HAL_TIM_PWM_MspInit:
 494              		@ args = 0, pretend = 0, frame = 0
 495              		@ frame_needed = 0, uses_anonymous_args = 0
 496              		@ link register save eliminated.
 497 0000 7047     		bx	lr
 499              		.section	.text.HAL_TIM_PWM_MspDeInit,"ax",%progbits
 500              		.align	1
 501              		.weak	HAL_TIM_PWM_MspDeInit
 502              		.thumb
 503              		.thumb_func
 505              	HAL_TIM_PWM_MspDeInit:
 506              		@ args = 0, pretend = 0, frame = 0
 507              		@ frame_needed = 0, uses_anonymous_args = 0
 508              		@ link register save eliminated.
 509 0000 7047     		bx	lr
 511              		.section	.text.HAL_TIM_PWM_DeInit,"ax",%progbits
 512              		.align	1
 513              		.global	HAL_TIM_PWM_DeInit
 514              		.thumb
 515              		.thumb_func
 517              	HAL_TIM_PWM_DeInit:
 518              		@ args = 0, pretend = 0, frame = 0
 519              		@ frame_needed = 0, uses_anonymous_args = 0
 520 0000 41F21112 		movw	r2, #4369
 521 0004 0223     		movs	r3, #2
 522 0006 10B5     		push	{r4, lr}
 523 0008 80F83D30 		strb	r3, [r0, #61]
 524 000c 0368     		ldr	r3, [r0]
 525 000e 0446     		mov	r4, r0
 526 0010 196A     		ldr	r1, [r3, #32]
 527 0012 0A40     		ands	r2, r2, r1
 528 0014 42B9     		cbnz	r2, .L60
 529 0016 40F24442 		movw	r2, #1092
 530 001a 196A     		ldr	r1, [r3, #32]
 531 001c 0A40     		ands	r2, r2, r1
 532 001e 1AB9     		cbnz	r2, .L60
 533 0020 1A68     		ldr	r2, [r3]
 534 0022 22F00102 		bic	r2, r2, #1
 535 0026 1A60     		str	r2, [r3]
 536              	.L60:
 537 0028 2046     		mov	r0, r4
 538 002a FFF7FEFF 		bl	HAL_TIM_PWM_MspDeInit
 539 002e 0020     		movs	r0, #0
 540 0030 84F83D00 		strb	r0, [r4, #61]
 541 0034 84F83C00 		strb	r0, [r4, #60]
 542 0038 10BD     		pop	{r4, pc}
 544              		.section	.text.HAL_TIM_IC_MspInit,"ax",%progbits
 545              		.align	1
 546              		.weak	HAL_TIM_IC_MspInit
 547              		.thumb
 548              		.thumb_func
 550              	HAL_TIM_IC_MspInit:
ARM GAS  /tmp/ccRVpOvn.s 			page 10


 551              		@ args = 0, pretend = 0, frame = 0
 552              		@ frame_needed = 0, uses_anonymous_args = 0
 553              		@ link register save eliminated.
 554 0000 7047     		bx	lr
 556              		.section	.text.HAL_TIM_IC_MspDeInit,"ax",%progbits
 557              		.align	1
 558              		.weak	HAL_TIM_IC_MspDeInit
 559              		.thumb
 560              		.thumb_func
 562              	HAL_TIM_IC_MspDeInit:
 563              		@ args = 0, pretend = 0, frame = 0
 564              		@ frame_needed = 0, uses_anonymous_args = 0
 565              		@ link register save eliminated.
 566 0000 7047     		bx	lr
 568              		.section	.text.HAL_TIM_IC_DeInit,"ax",%progbits
 569              		.align	1
 570              		.global	HAL_TIM_IC_DeInit
 571              		.thumb
 572              		.thumb_func
 574              	HAL_TIM_IC_DeInit:
 575              		@ args = 0, pretend = 0, frame = 0
 576              		@ frame_needed = 0, uses_anonymous_args = 0
 577 0000 41F21112 		movw	r2, #4369
 578 0004 0223     		movs	r3, #2
 579 0006 10B5     		push	{r4, lr}
 580 0008 80F83D30 		strb	r3, [r0, #61]
 581 000c 0368     		ldr	r3, [r0]
 582 000e 0446     		mov	r4, r0
 583 0010 196A     		ldr	r1, [r3, #32]
 584 0012 0A40     		ands	r2, r2, r1
 585 0014 42B9     		cbnz	r2, .L64
 586 0016 40F24442 		movw	r2, #1092
 587 001a 196A     		ldr	r1, [r3, #32]
 588 001c 0A40     		ands	r2, r2, r1
 589 001e 1AB9     		cbnz	r2, .L64
 590 0020 1A68     		ldr	r2, [r3]
 591 0022 22F00102 		bic	r2, r2, #1
 592 0026 1A60     		str	r2, [r3]
 593              	.L64:
 594 0028 2046     		mov	r0, r4
 595 002a FFF7FEFF 		bl	HAL_TIM_IC_MspDeInit
 596 002e 0020     		movs	r0, #0
 597 0030 84F83D00 		strb	r0, [r4, #61]
 598 0034 84F83C00 		strb	r0, [r4, #60]
 599 0038 10BD     		pop	{r4, pc}
 601              		.section	.text.HAL_TIM_OnePulse_MspInit,"ax",%progbits
 602              		.align	1
 603              		.weak	HAL_TIM_OnePulse_MspInit
 604              		.thumb
 605              		.thumb_func
 607              	HAL_TIM_OnePulse_MspInit:
 608              		@ args = 0, pretend = 0, frame = 0
 609              		@ frame_needed = 0, uses_anonymous_args = 0
 610              		@ link register save eliminated.
 611 0000 7047     		bx	lr
 613              		.section	.text.HAL_TIM_OnePulse_MspDeInit,"ax",%progbits
 614              		.align	1
ARM GAS  /tmp/ccRVpOvn.s 			page 11


 615              		.weak	HAL_TIM_OnePulse_MspDeInit
 616              		.thumb
 617              		.thumb_func
 619              	HAL_TIM_OnePulse_MspDeInit:
 620              		@ args = 0, pretend = 0, frame = 0
 621              		@ frame_needed = 0, uses_anonymous_args = 0
 622              		@ link register save eliminated.
 623 0000 7047     		bx	lr
 625              		.section	.text.HAL_TIM_OnePulse_DeInit,"ax",%progbits
 626              		.align	1
 627              		.global	HAL_TIM_OnePulse_DeInit
 628              		.thumb
 629              		.thumb_func
 631              	HAL_TIM_OnePulse_DeInit:
 632              		@ args = 0, pretend = 0, frame = 0
 633              		@ frame_needed = 0, uses_anonymous_args = 0
 634 0000 41F21112 		movw	r2, #4369
 635 0004 0223     		movs	r3, #2
 636 0006 10B5     		push	{r4, lr}
 637 0008 80F83D30 		strb	r3, [r0, #61]
 638 000c 0368     		ldr	r3, [r0]
 639 000e 0446     		mov	r4, r0
 640 0010 196A     		ldr	r1, [r3, #32]
 641 0012 0A40     		ands	r2, r2, r1
 642 0014 42B9     		cbnz	r2, .L68
 643 0016 40F24442 		movw	r2, #1092
 644 001a 196A     		ldr	r1, [r3, #32]
 645 001c 0A40     		ands	r2, r2, r1
 646 001e 1AB9     		cbnz	r2, .L68
 647 0020 1A68     		ldr	r2, [r3]
 648 0022 22F00102 		bic	r2, r2, #1
 649 0026 1A60     		str	r2, [r3]
 650              	.L68:
 651 0028 2046     		mov	r0, r4
 652 002a FFF7FEFF 		bl	HAL_TIM_OnePulse_MspDeInit
 653 002e 0020     		movs	r0, #0
 654 0030 84F83D00 		strb	r0, [r4, #61]
 655 0034 84F83C00 		strb	r0, [r4, #60]
 656 0038 10BD     		pop	{r4, pc}
 658              		.section	.text.HAL_TIM_OnePulse_Start,"ax",%progbits
 659              		.align	1
 660              		.global	HAL_TIM_OnePulse_Start
 661              		.thumb
 662              		.thumb_func
 664              	HAL_TIM_OnePulse_Start:
 665              		@ args = 0, pretend = 0, frame = 0
 666              		@ frame_needed = 0, uses_anonymous_args = 0
 667              		@ link register save eliminated.
 668 0000 0368     		ldr	r3, [r0]
 669 0002 1A6A     		ldr	r2, [r3, #32]
 670 0004 22F00102 		bic	r2, r2, #1
 671 0008 1A62     		str	r2, [r3, #32]
 672 000a 1A6A     		ldr	r2, [r3, #32]
 673 000c 42F00102 		orr	r2, r2, #1
 674 0010 1A62     		str	r2, [r3, #32]
 675 0012 1A6A     		ldr	r2, [r3, #32]
 676 0014 22F01002 		bic	r2, r2, #16
ARM GAS  /tmp/ccRVpOvn.s 			page 12


 677 0018 1A62     		str	r2, [r3, #32]
 678 001a 1A6A     		ldr	r2, [r3, #32]
 679 001c 42F01002 		orr	r2, r2, #16
 680 0020 1A62     		str	r2, [r3, #32]
 681 0022 064A     		ldr	r2, .L73
 682 0024 9342     		cmp	r3, r2
 683 0026 03D0     		beq	.L70
 684 0028 02F50062 		add	r2, r2, #2048
 685 002c 9342     		cmp	r3, r2
 686 002e 03D1     		bne	.L72
 687              	.L70:
 688 0030 5A6C     		ldr	r2, [r3, #68]
 689 0032 42F40042 		orr	r2, r2, #32768
 690 0036 5A64     		str	r2, [r3, #68]
 691              	.L72:
 692 0038 0020     		movs	r0, #0
 693 003a 7047     		bx	lr
 694              	.L74:
 695              		.align	2
 696              	.L73:
 697 003c 002C0140 		.word	1073818624
 699              		.section	.text.HAL_TIM_OnePulse_Stop,"ax",%progbits
 700              		.align	1
 701              		.global	HAL_TIM_OnePulse_Stop
 702              		.thumb
 703              		.thumb_func
 705              	HAL_TIM_OnePulse_Stop:
 706              		@ args = 0, pretend = 0, frame = 0
 707              		@ frame_needed = 0, uses_anonymous_args = 0
 708              		@ link register save eliminated.
 709 0000 0368     		ldr	r3, [r0]
 710 0002 1A6A     		ldr	r2, [r3, #32]
 711 0004 22F00102 		bic	r2, r2, #1
 712 0008 1A62     		str	r2, [r3, #32]
 713 000a 1A6A     		ldr	r2, [r3, #32]
 714 000c 1A62     		str	r2, [r3, #32]
 715 000e 1A6A     		ldr	r2, [r3, #32]
 716 0010 22F01002 		bic	r2, r2, #16
 717 0014 1A62     		str	r2, [r3, #32]
 718 0016 1A6A     		ldr	r2, [r3, #32]
 719 0018 1A62     		str	r2, [r3, #32]
 720 001a 124A     		ldr	r2, .L81
 721 001c 9342     		cmp	r3, r2
 722 001e 03D0     		beq	.L76
 723 0020 02F50062 		add	r2, r2, #2048
 724 0024 9342     		cmp	r3, r2
 725 0026 0DD1     		bne	.L77
 726              	.L76:
 727 0028 41F21112 		movw	r2, #4369
 728 002c 196A     		ldr	r1, [r3, #32]
 729 002e 0A40     		ands	r2, r2, r1
 730 0030 42B9     		cbnz	r2, .L77
 731 0032 40F24442 		movw	r2, #1092
 732 0036 196A     		ldr	r1, [r3, #32]
 733 0038 0A40     		ands	r2, r2, r1
 734 003a 1AB9     		cbnz	r2, .L77
 735 003c 5A6C     		ldr	r2, [r3, #68]
ARM GAS  /tmp/ccRVpOvn.s 			page 13


 736 003e 22F40042 		bic	r2, r2, #32768
 737 0042 5A64     		str	r2, [r3, #68]
 738              	.L77:
 739 0044 41F21112 		movw	r2, #4369
 740 0048 196A     		ldr	r1, [r3, #32]
 741 004a 0A40     		ands	r2, r2, r1
 742 004c 42B9     		cbnz	r2, .L80
 743 004e 40F24442 		movw	r2, #1092
 744 0052 196A     		ldr	r1, [r3, #32]
 745 0054 0A40     		ands	r2, r2, r1
 746 0056 1AB9     		cbnz	r2, .L80
 747 0058 1A68     		ldr	r2, [r3]
 748 005a 22F00102 		bic	r2, r2, #1
 749 005e 1A60     		str	r2, [r3]
 750              	.L80:
 751 0060 0020     		movs	r0, #0
 752 0062 7047     		bx	lr
 753              	.L82:
 754              		.align	2
 755              	.L81:
 756 0064 002C0140 		.word	1073818624
 758              		.section	.text.HAL_TIM_OnePulse_Start_IT,"ax",%progbits
 759              		.align	1
 760              		.global	HAL_TIM_OnePulse_Start_IT
 761              		.thumb
 762              		.thumb_func
 764              	HAL_TIM_OnePulse_Start_IT:
 765              		@ args = 0, pretend = 0, frame = 0
 766              		@ frame_needed = 0, uses_anonymous_args = 0
 767              		@ link register save eliminated.
 768 0000 0368     		ldr	r3, [r0]
 769 0002 DA68     		ldr	r2, [r3, #12]
 770 0004 42F00202 		orr	r2, r2, #2
 771 0008 DA60     		str	r2, [r3, #12]
 772 000a DA68     		ldr	r2, [r3, #12]
 773 000c 42F00402 		orr	r2, r2, #4
 774 0010 DA60     		str	r2, [r3, #12]
 775 0012 1A6A     		ldr	r2, [r3, #32]
 776 0014 22F00102 		bic	r2, r2, #1
 777 0018 1A62     		str	r2, [r3, #32]
 778 001a 1A6A     		ldr	r2, [r3, #32]
 779 001c 42F00102 		orr	r2, r2, #1
 780 0020 1A62     		str	r2, [r3, #32]
 781 0022 1A6A     		ldr	r2, [r3, #32]
 782 0024 22F01002 		bic	r2, r2, #16
 783 0028 1A62     		str	r2, [r3, #32]
 784 002a 1A6A     		ldr	r2, [r3, #32]
 785 002c 42F01002 		orr	r2, r2, #16
 786 0030 1A62     		str	r2, [r3, #32]
 787 0032 064A     		ldr	r2, .L87
 788 0034 9342     		cmp	r3, r2
 789 0036 03D0     		beq	.L84
 790 0038 02F50062 		add	r2, r2, #2048
 791 003c 9342     		cmp	r3, r2
 792 003e 03D1     		bne	.L86
 793              	.L84:
 794 0040 5A6C     		ldr	r2, [r3, #68]
ARM GAS  /tmp/ccRVpOvn.s 			page 14


 795 0042 42F40042 		orr	r2, r2, #32768
 796 0046 5A64     		str	r2, [r3, #68]
 797              	.L86:
 798 0048 0020     		movs	r0, #0
 799 004a 7047     		bx	lr
 800              	.L88:
 801              		.align	2
 802              	.L87:
 803 004c 002C0140 		.word	1073818624
 805              		.section	.text.HAL_TIM_OnePulse_Stop_IT,"ax",%progbits
 806              		.align	1
 807              		.global	HAL_TIM_OnePulse_Stop_IT
 808              		.thumb
 809              		.thumb_func
 811              	HAL_TIM_OnePulse_Stop_IT:
 812              		@ args = 0, pretend = 0, frame = 0
 813              		@ frame_needed = 0, uses_anonymous_args = 0
 814              		@ link register save eliminated.
 815 0000 0368     		ldr	r3, [r0]
 816 0002 DA68     		ldr	r2, [r3, #12]
 817 0004 22F00202 		bic	r2, r2, #2
 818 0008 DA60     		str	r2, [r3, #12]
 819 000a DA68     		ldr	r2, [r3, #12]
 820 000c 22F00402 		bic	r2, r2, #4
 821 0010 DA60     		str	r2, [r3, #12]
 822 0012 1A6A     		ldr	r2, [r3, #32]
 823 0014 22F00102 		bic	r2, r2, #1
 824 0018 1A62     		str	r2, [r3, #32]
 825 001a 1A6A     		ldr	r2, [r3, #32]
 826 001c 1A62     		str	r2, [r3, #32]
 827 001e 1A6A     		ldr	r2, [r3, #32]
 828 0020 22F01002 		bic	r2, r2, #16
 829 0024 1A62     		str	r2, [r3, #32]
 830 0026 1A6A     		ldr	r2, [r3, #32]
 831 0028 1A62     		str	r2, [r3, #32]
 832 002a 124A     		ldr	r2, .L95
 833 002c 9342     		cmp	r3, r2
 834 002e 03D0     		beq	.L90
 835 0030 02F50062 		add	r2, r2, #2048
 836 0034 9342     		cmp	r3, r2
 837 0036 0DD1     		bne	.L91
 838              	.L90:
 839 0038 41F21112 		movw	r2, #4369
 840 003c 196A     		ldr	r1, [r3, #32]
 841 003e 0A40     		ands	r2, r2, r1
 842 0040 42B9     		cbnz	r2, .L91
 843 0042 40F24442 		movw	r2, #1092
 844 0046 196A     		ldr	r1, [r3, #32]
 845 0048 0A40     		ands	r2, r2, r1
 846 004a 1AB9     		cbnz	r2, .L91
 847 004c 5A6C     		ldr	r2, [r3, #68]
 848 004e 22F40042 		bic	r2, r2, #32768
 849 0052 5A64     		str	r2, [r3, #68]
 850              	.L91:
 851 0054 41F21112 		movw	r2, #4369
 852 0058 196A     		ldr	r1, [r3, #32]
 853 005a 0A40     		ands	r2, r2, r1
ARM GAS  /tmp/ccRVpOvn.s 			page 15


 854 005c 42B9     		cbnz	r2, .L94
 855 005e 40F24442 		movw	r2, #1092
 856 0062 196A     		ldr	r1, [r3, #32]
 857 0064 0A40     		ands	r2, r2, r1
 858 0066 1AB9     		cbnz	r2, .L94
 859 0068 1A68     		ldr	r2, [r3]
 860 006a 22F00102 		bic	r2, r2, #1
 861 006e 1A60     		str	r2, [r3]
 862              	.L94:
 863 0070 0020     		movs	r0, #0
 864 0072 7047     		bx	lr
 865              	.L96:
 866              		.align	2
 867              	.L95:
 868 0074 002C0140 		.word	1073818624
 870              		.section	.text.HAL_TIM_Encoder_MspInit,"ax",%progbits
 871              		.align	1
 872              		.weak	HAL_TIM_Encoder_MspInit
 873              		.thumb
 874              		.thumb_func
 876              	HAL_TIM_Encoder_MspInit:
 877              		@ args = 0, pretend = 0, frame = 0
 878              		@ frame_needed = 0, uses_anonymous_args = 0
 879              		@ link register save eliminated.
 880 0000 7047     		bx	lr
 882              		.section	.text.HAL_TIM_Encoder_MspDeInit,"ax",%progbits
 883              		.align	1
 884              		.weak	HAL_TIM_Encoder_MspDeInit
 885              		.thumb
 886              		.thumb_func
 888              	HAL_TIM_Encoder_MspDeInit:
 889              		@ args = 0, pretend = 0, frame = 0
 890              		@ frame_needed = 0, uses_anonymous_args = 0
 891              		@ link register save eliminated.
 892 0000 7047     		bx	lr
 894              		.section	.text.HAL_TIM_Encoder_DeInit,"ax",%progbits
 895              		.align	1
 896              		.global	HAL_TIM_Encoder_DeInit
 897              		.thumb
 898              		.thumb_func
 900              	HAL_TIM_Encoder_DeInit:
 901              		@ args = 0, pretend = 0, frame = 0
 902              		@ frame_needed = 0, uses_anonymous_args = 0
 903 0000 41F21112 		movw	r2, #4369
 904 0004 0223     		movs	r3, #2
 905 0006 10B5     		push	{r4, lr}
 906 0008 80F83D30 		strb	r3, [r0, #61]
 907 000c 0368     		ldr	r3, [r0]
 908 000e 0446     		mov	r4, r0
 909 0010 196A     		ldr	r1, [r3, #32]
 910 0012 0A40     		ands	r2, r2, r1
 911 0014 42B9     		cbnz	r2, .L100
 912 0016 40F24442 		movw	r2, #1092
 913 001a 196A     		ldr	r1, [r3, #32]
 914 001c 0A40     		ands	r2, r2, r1
 915 001e 1AB9     		cbnz	r2, .L100
 916 0020 1A68     		ldr	r2, [r3]
ARM GAS  /tmp/ccRVpOvn.s 			page 16


 917 0022 22F00102 		bic	r2, r2, #1
 918 0026 1A60     		str	r2, [r3]
 919              	.L100:
 920 0028 2046     		mov	r0, r4
 921 002a FFF7FEFF 		bl	HAL_TIM_Encoder_MspDeInit
 922 002e 0020     		movs	r0, #0
 923 0030 84F83D00 		strb	r0, [r4, #61]
 924 0034 84F83C00 		strb	r0, [r4, #60]
 925 0038 10BD     		pop	{r4, pc}
 927              		.section	.text.HAL_TIM_Encoder_Start,"ax",%progbits
 928              		.align	1
 929              		.global	HAL_TIM_Encoder_Start
 930              		.thumb
 931              		.thumb_func
 933              	HAL_TIM_Encoder_Start:
 934              		@ args = 0, pretend = 0, frame = 0
 935              		@ frame_needed = 0, uses_anonymous_args = 0
 936              		@ link register save eliminated.
 937 0000 0368     		ldr	r3, [r0]
 938 0002 51B1     		cbz	r1, .L103
 939 0004 0429     		cmp	r1, #4
 940 0006 10D0     		beq	.L108
 941 0008 1A6A     		ldr	r2, [r3, #32]
 942 000a 22F00102 		bic	r2, r2, #1
 943 000e 1A62     		str	r2, [r3, #32]
 944 0010 1A6A     		ldr	r2, [r3, #32]
 945 0012 42F00102 		orr	r2, r2, #1
 946 0016 1A62     		str	r2, [r3, #32]
 947 0018 07E0     		b	.L108
 948              	.L103:
 949 001a 1A6A     		ldr	r2, [r3, #32]
 950 001c 22F00102 		bic	r2, r2, #1
 951 0020 1A62     		str	r2, [r3, #32]
 952 0022 1A6A     		ldr	r2, [r3, #32]
 953 0024 42F00102 		orr	r2, r2, #1
 954 0028 06E0     		b	.L107
 955              	.L108:
 956 002a 1A6A     		ldr	r2, [r3, #32]
 957 002c 22F01002 		bic	r2, r2, #16
 958 0030 1A62     		str	r2, [r3, #32]
 959 0032 1A6A     		ldr	r2, [r3, #32]
 960 0034 42F01002 		orr	r2, r2, #16
 961              	.L107:
 962 0038 1A62     		str	r2, [r3, #32]
 963 003a 1A68     		ldr	r2, [r3]
 964 003c 0020     		movs	r0, #0
 965 003e 42F00102 		orr	r2, r2, #1
 966 0042 1A60     		str	r2, [r3]
 967 0044 7047     		bx	lr
 969              		.section	.text.HAL_TIM_Encoder_Stop,"ax",%progbits
 970              		.align	1
 971              		.global	HAL_TIM_Encoder_Stop
 972              		.thumb
 973              		.thumb_func
 975              	HAL_TIM_Encoder_Stop:
 976              		@ args = 0, pretend = 0, frame = 0
 977              		@ frame_needed = 0, uses_anonymous_args = 0
ARM GAS  /tmp/ccRVpOvn.s 			page 17


 978              		@ link register save eliminated.
 979 0000 0368     		ldr	r3, [r0]
 980 0002 41B1     		cbz	r1, .L111
 981 0004 0429     		cmp	r1, #4
 982 0006 0AD0     		beq	.L117
 983 0008 1A6A     		ldr	r2, [r3, #32]
 984 000a 22F00102 		bic	r2, r2, #1
 985 000e 1A62     		str	r2, [r3, #32]
 986 0010 1A6A     		ldr	r2, [r3, #32]
 987 0012 1A62     		str	r2, [r3, #32]
 988 0014 03E0     		b	.L117
 989              	.L111:
 990 0016 1A6A     		ldr	r2, [r3, #32]
 991 0018 22F00102 		bic	r2, r2, #1
 992 001c 02E0     		b	.L116
 993              	.L117:
 994 001e 1A6A     		ldr	r2, [r3, #32]
 995 0020 22F01002 		bic	r2, r2, #16
 996              	.L116:
 997 0024 1A62     		str	r2, [r3, #32]
 998 0026 1A6A     		ldr	r2, [r3, #32]
 999 0028 1A62     		str	r2, [r3, #32]
 1000 002a 41F21112 		movw	r2, #4369
 1001 002e 196A     		ldr	r1, [r3, #32]
 1002 0030 0A40     		ands	r2, r2, r1
 1003 0032 42B9     		cbnz	r2, .L114
 1004 0034 40F24442 		movw	r2, #1092
 1005 0038 196A     		ldr	r1, [r3, #32]
 1006 003a 0A40     		ands	r2, r2, r1
 1007 003c 1AB9     		cbnz	r2, .L114
 1008 003e 1A68     		ldr	r2, [r3]
 1009 0040 22F00102 		bic	r2, r2, #1
 1010 0044 1A60     		str	r2, [r3]
 1011              	.L114:
 1012 0046 0020     		movs	r0, #0
 1013 0048 7047     		bx	lr
 1015              		.section	.text.HAL_TIM_Encoder_Start_IT,"ax",%progbits
 1016              		.align	1
 1017              		.global	HAL_TIM_Encoder_Start_IT
 1018              		.thumb
 1019              		.thumb_func
 1021              	HAL_TIM_Encoder_Start_IT:
 1022              		@ args = 0, pretend = 0, frame = 0
 1023              		@ frame_needed = 0, uses_anonymous_args = 0
 1024              		@ link register save eliminated.
 1025 0000 0368     		ldr	r3, [r0]
 1026 0002 51B1     		cbz	r1, .L120
 1027 0004 0429     		cmp	r1, #4
 1028 0006 14D1     		bne	.L126
 1029 0008 1A6A     		ldr	r2, [r3, #32]
 1030 000a 22F01002 		bic	r2, r2, #16
 1031 000e 1A62     		str	r2, [r3, #32]
 1032 0010 1A6A     		ldr	r2, [r3, #32]
 1033 0012 42F01002 		orr	r2, r2, #16
 1034 0016 1A62     		str	r2, [r3, #32]
 1035 0018 1FE0     		b	.L125
 1036              	.L120:
ARM GAS  /tmp/ccRVpOvn.s 			page 18


 1037 001a 1A6A     		ldr	r2, [r3, #32]
 1038 001c 22F00102 		bic	r2, r2, #1
 1039 0020 1A62     		str	r2, [r3, #32]
 1040 0022 1A6A     		ldr	r2, [r3, #32]
 1041 0024 42F00102 		orr	r2, r2, #1
 1042 0028 1A62     		str	r2, [r3, #32]
 1043 002a DA68     		ldr	r2, [r3, #12]
 1044 002c 42F00202 		orr	r2, r2, #2
 1045 0030 16E0     		b	.L124
 1046              	.L126:
 1047 0032 1A6A     		ldr	r2, [r3, #32]
 1048 0034 22F00102 		bic	r2, r2, #1
 1049 0038 1A62     		str	r2, [r3, #32]
 1050 003a 1A6A     		ldr	r2, [r3, #32]
 1051 003c 42F00102 		orr	r2, r2, #1
 1052 0040 1A62     		str	r2, [r3, #32]
 1053 0042 1A6A     		ldr	r2, [r3, #32]
 1054 0044 22F01002 		bic	r2, r2, #16
 1055 0048 1A62     		str	r2, [r3, #32]
 1056 004a 1A6A     		ldr	r2, [r3, #32]
 1057 004c 42F01002 		orr	r2, r2, #16
 1058 0050 1A62     		str	r2, [r3, #32]
 1059 0052 DA68     		ldr	r2, [r3, #12]
 1060 0054 42F00202 		orr	r2, r2, #2
 1061 0058 DA60     		str	r2, [r3, #12]
 1062              	.L125:
 1063 005a DA68     		ldr	r2, [r3, #12]
 1064 005c 42F00402 		orr	r2, r2, #4
 1065              	.L124:
 1066 0060 DA60     		str	r2, [r3, #12]
 1067 0062 1A68     		ldr	r2, [r3]
 1068 0064 0020     		movs	r0, #0
 1069 0066 42F00102 		orr	r2, r2, #1
 1070 006a 1A60     		str	r2, [r3]
 1071 006c 7047     		bx	lr
 1073              		.section	.text.HAL_TIM_Encoder_Stop_IT,"ax",%progbits
 1074              		.align	1
 1075              		.global	HAL_TIM_Encoder_Stop_IT
 1076              		.thumb
 1077              		.thumb_func
 1079              	HAL_TIM_Encoder_Stop_IT:
 1080              		@ args = 0, pretend = 0, frame = 0
 1081              		@ frame_needed = 0, uses_anonymous_args = 0
 1082              		@ link register save eliminated.
 1083 0000 0368     		ldr	r3, [r0]
 1084 0002 1A6A     		ldr	r2, [r3, #32]
 1085 0004 41B9     		cbnz	r1, .L128
 1086 0006 22F00102 		bic	r2, r2, #1
 1087 000a 1A62     		str	r2, [r3, #32]
 1088 000c 1A6A     		ldr	r2, [r3, #32]
 1089 000e 1A62     		str	r2, [r3, #32]
 1090 0010 DA68     		ldr	r2, [r3, #12]
 1091 0012 22F00202 		bic	r2, r2, #2
 1092 0016 19E0     		b	.L132
 1093              	.L128:
 1094 0018 0429     		cmp	r1, #4
 1095 001a 05D1     		bne	.L130
ARM GAS  /tmp/ccRVpOvn.s 			page 19


 1096 001c 22F01002 		bic	r2, r2, #16
 1097 0020 1A62     		str	r2, [r3, #32]
 1098 0022 1A6A     		ldr	r2, [r3, #32]
 1099 0024 1A62     		str	r2, [r3, #32]
 1100 0026 0EE0     		b	.L133
 1101              	.L130:
 1102 0028 22F00102 		bic	r2, r2, #1
 1103 002c 1A62     		str	r2, [r3, #32]
 1104 002e 1A6A     		ldr	r2, [r3, #32]
 1105 0030 1A62     		str	r2, [r3, #32]
 1106 0032 1A6A     		ldr	r2, [r3, #32]
 1107 0034 22F01002 		bic	r2, r2, #16
 1108 0038 1A62     		str	r2, [r3, #32]
 1109 003a 1A6A     		ldr	r2, [r3, #32]
 1110 003c 1A62     		str	r2, [r3, #32]
 1111 003e DA68     		ldr	r2, [r3, #12]
 1112 0040 22F00202 		bic	r2, r2, #2
 1113 0044 DA60     		str	r2, [r3, #12]
 1114              	.L133:
 1115 0046 DA68     		ldr	r2, [r3, #12]
 1116 0048 22F00402 		bic	r2, r2, #4
 1117              	.L132:
 1118 004c DA60     		str	r2, [r3, #12]
 1119 004e 41F21112 		movw	r2, #4369
 1120 0052 196A     		ldr	r1, [r3, #32]
 1121 0054 0A40     		ands	r2, r2, r1
 1122 0056 42B9     		cbnz	r2, .L131
 1123 0058 40F24442 		movw	r2, #1092
 1124 005c 196A     		ldr	r1, [r3, #32]
 1125 005e 0A40     		ands	r2, r2, r1
 1126 0060 1AB9     		cbnz	r2, .L131
 1127 0062 1A68     		ldr	r2, [r3]
 1128 0064 22F00102 		bic	r2, r2, #1
 1129 0068 1A60     		str	r2, [r3]
 1130              	.L131:
 1131 006a 0123     		movs	r3, #1
 1132 006c 80F83D30 		strb	r3, [r0, #61]
 1133 0070 0020     		movs	r0, #0
 1134 0072 7047     		bx	lr
 1136              		.section	.text.HAL_TIM_Encoder_Start_DMA,"ax",%progbits
 1137              		.align	1
 1138              		.global	HAL_TIM_Encoder_Start_DMA
 1139              		.thumb
 1140              		.thumb_func
 1142              	HAL_TIM_Encoder_Start_DMA:
 1143              		@ args = 4, pretend = 0, frame = 0
 1144              		@ frame_needed = 0, uses_anonymous_args = 0
 1145 0000 2DE9F843 		push	{r3, r4, r5, r6, r7, r8, r9, lr}
 1146 0004 0446     		mov	r4, r0
 1147 0006 90F83D00 		ldrb	r0, [r0, #61]	@ zero_extendqisi2
 1148 000a 1E46     		mov	r6, r3
 1149 000c C0B2     		uxtb	r0, r0
 1150 000e 0228     		cmp	r0, #2
 1151 0010 BDF82050 		ldrh	r5, [sp, #32]
 1152 0014 00F09480 		beq	.L135
 1153 0018 94F83D30 		ldrb	r3, [r4, #61]	@ zero_extendqisi2
 1154 001c 012B     		cmp	r3, #1
ARM GAS  /tmp/ccRVpOvn.s 			page 20


 1155 001e 08D1     		bne	.L136
 1156 0020 02B1     		cbz	r2, .L137
 1157 0022 1EB9     		cbnz	r6, .L138
 1158              	.L137:
 1159 0024 15B1     		cbz	r5, .L138
 1160              	.L142:
 1161 0026 0120     		movs	r0, #1
 1162 0028 BDE8F883 		pop	{r3, r4, r5, r6, r7, r8, r9, pc}
 1163              	.L138:
 1164 002c 0223     		movs	r3, #2
 1165 002e 84F83D30 		strb	r3, [r4, #61]
 1166              	.L136:
 1167 0032 0429     		cmp	r1, #4
 1168 0034 22D0     		beq	.L139
 1169 0036 3C29     		cmp	r1, #60
 1170 0038 42D0     		beq	.L140
 1171 003a 0029     		cmp	r1, #0
 1172 003c 7FD1     		bne	.L151
 1173 003e 606A     		ldr	r0, [r4, #36]
 1174 0040 404B     		ldr	r3, .L153
 1175 0042 2168     		ldr	r1, [r4]
 1176 0044 8362     		str	r3, [r0, #40]
 1177 0046 404B     		ldr	r3, .L153+4
 1178 0048 3431     		adds	r1, r1, #52
 1179 004a C362     		str	r3, [r0, #44]
 1180 004c 3F4B     		ldr	r3, .L153+8
 1181 004e 0363     		str	r3, [r0, #48]
 1182 0050 2B46     		mov	r3, r5
 1183 0052 FFF7FEFF 		bl	HAL_DMA_Start_IT
 1184 0056 0028     		cmp	r0, #0
 1185 0058 E5D1     		bne	.L142
 1186 005a 2368     		ldr	r3, [r4]
 1187 005c DA68     		ldr	r2, [r3, #12]
 1188 005e 42F40072 		orr	r2, r2, #512
 1189 0062 DA60     		str	r2, [r3, #12]
 1190 0064 1A68     		ldr	r2, [r3]
 1191 0066 42F00102 		orr	r2, r2, #1
 1192 006a 1A60     		str	r2, [r3]
 1193 006c 1A6A     		ldr	r2, [r3, #32]
 1194 006e 22F00102 		bic	r2, r2, #1
 1195 0072 1A62     		str	r2, [r3, #32]
 1196 0074 1A6A     		ldr	r2, [r3, #32]
 1197 0076 42F00102 		orr	r2, r2, #1
 1198 007a 1EE0     		b	.L152
 1199              	.L139:
 1200 007c A06A     		ldr	r0, [r4, #40]
 1201 007e 314B     		ldr	r3, .L153
 1202 0080 2168     		ldr	r1, [r4]
 1203 0082 8362     		str	r3, [r0, #40]
 1204 0084 304B     		ldr	r3, .L153+4
 1205 0086 3831     		adds	r1, r1, #56
 1206 0088 C362     		str	r3, [r0, #44]
 1207 008a 304B     		ldr	r3, .L153+8
 1208 008c 3246     		mov	r2, r6
 1209 008e 0363     		str	r3, [r0, #48]
 1210 0090 2B46     		mov	r3, r5
 1211 0092 FFF7FEFF 		bl	HAL_DMA_Start_IT
ARM GAS  /tmp/ccRVpOvn.s 			page 21


 1212 0096 0028     		cmp	r0, #0
 1213 0098 C5D1     		bne	.L142
 1214 009a 2368     		ldr	r3, [r4]
 1215 009c DA68     		ldr	r2, [r3, #12]
 1216 009e 42F48062 		orr	r2, r2, #1024
 1217 00a2 DA60     		str	r2, [r3, #12]
 1218 00a4 1A68     		ldr	r2, [r3]
 1219 00a6 42F00102 		orr	r2, r2, #1
 1220 00aa 1A60     		str	r2, [r3]
 1221 00ac 1A6A     		ldr	r2, [r3, #32]
 1222 00ae 22F01002 		bic	r2, r2, #16
 1223 00b2 1A62     		str	r2, [r3, #32]
 1224 00b4 1A6A     		ldr	r2, [r3, #32]
 1225 00b6 42F01002 		orr	r2, r2, #16
 1226              	.L152:
 1227 00ba 1A62     		str	r2, [r3, #32]
 1228 00bc BDE8F883 		pop	{r3, r4, r5, r6, r7, r8, r9, pc}
 1229              	.L140:
 1230 00c0 606A     		ldr	r0, [r4, #36]
 1231 00c2 DFF88090 		ldr	r9, .L153
 1232 00c6 DFF88080 		ldr	r8, .L153+4
 1233 00ca 204F     		ldr	r7, .L153+8
 1234 00cc 2168     		ldr	r1, [r4]
 1235 00ce C0F82890 		str	r9, [r0, #40]
 1236 00d2 C0F82C80 		str	r8, [r0, #44]
 1237 00d6 0763     		str	r7, [r0, #48]
 1238 00d8 3431     		adds	r1, r1, #52
 1239 00da 2B46     		mov	r3, r5
 1240 00dc FFF7FEFF 		bl	HAL_DMA_Start_IT
 1241 00e0 0028     		cmp	r0, #0
 1242 00e2 A0D1     		bne	.L142
 1243 00e4 A06A     		ldr	r0, [r4, #40]
 1244 00e6 2168     		ldr	r1, [r4]
 1245 00e8 C0F82890 		str	r9, [r0, #40]
 1246 00ec C0F82C80 		str	r8, [r0, #44]
 1247 00f0 0763     		str	r7, [r0, #48]
 1248 00f2 3831     		adds	r1, r1, #56
 1249 00f4 3246     		mov	r2, r6
 1250 00f6 2B46     		mov	r3, r5
 1251 00f8 FFF7FEFF 		bl	HAL_DMA_Start_IT
 1252 00fc 0028     		cmp	r0, #0
 1253 00fe 92D1     		bne	.L142
 1254 0100 2368     		ldr	r3, [r4]
 1255 0102 1A68     		ldr	r2, [r3]
 1256 0104 42F00102 		orr	r2, r2, #1
 1257 0108 1A60     		str	r2, [r3]
 1258 010a 1A6A     		ldr	r2, [r3, #32]
 1259 010c 22F00102 		bic	r2, r2, #1
 1260 0110 1A62     		str	r2, [r3, #32]
 1261 0112 1A6A     		ldr	r2, [r3, #32]
 1262 0114 42F00102 		orr	r2, r2, #1
 1263 0118 1A62     		str	r2, [r3, #32]
 1264 011a 1A6A     		ldr	r2, [r3, #32]
 1265 011c 22F01002 		bic	r2, r2, #16
 1266 0120 1A62     		str	r2, [r3, #32]
 1267 0122 1A6A     		ldr	r2, [r3, #32]
 1268 0124 42F01002 		orr	r2, r2, #16
ARM GAS  /tmp/ccRVpOvn.s 			page 22


 1269 0128 1A62     		str	r2, [r3, #32]
 1270 012a DA68     		ldr	r2, [r3, #12]
 1271 012c 42F40072 		orr	r2, r2, #512
 1272 0130 DA60     		str	r2, [r3, #12]
 1273 0132 DA68     		ldr	r2, [r3, #12]
 1274 0134 42F48062 		orr	r2, r2, #1024
 1275 0138 DA60     		str	r2, [r3, #12]
 1276 013a BDE8F883 		pop	{r3, r4, r5, r6, r7, r8, r9, pc}
 1277              	.L151:
 1278 013e 0020     		movs	r0, #0
 1279              	.L135:
 1280 0140 BDE8F883 		pop	{r3, r4, r5, r6, r7, r8, r9, pc}
 1281              	.L154:
 1282              		.align	2
 1283              	.L153:
 1284 0144 00000000 		.word	TIM_DMACaptureCplt
 1285 0148 00000000 		.word	TIM_DMACaptureHalfCplt
 1286 014c 00000000 		.word	TIM_DMAError
 1288              		.section	.text.HAL_TIM_Encoder_Stop_DMA,"ax",%progbits
 1289              		.align	1
 1290              		.global	HAL_TIM_Encoder_Stop_DMA
 1291              		.thumb
 1292              		.thumb_func
 1294              	HAL_TIM_Encoder_Stop_DMA:
 1295              		@ args = 0, pretend = 0, frame = 0
 1296              		@ frame_needed = 0, uses_anonymous_args = 0
 1297 0000 0368     		ldr	r3, [r0]
 1298 0002 10B5     		push	{r4, lr}
 1299 0004 1A6A     		ldr	r2, [r3, #32]
 1300 0006 0446     		mov	r4, r0
 1301 0008 51B9     		cbnz	r1, .L156
 1302 000a 22F00102 		bic	r2, r2, #1
 1303 000e 1A62     		str	r2, [r3, #32]
 1304 0010 1A6A     		ldr	r2, [r3, #32]
 1305 0012 406A     		ldr	r0, [r0, #36]
 1306 0014 1A62     		str	r2, [r3, #32]
 1307 0016 DA68     		ldr	r2, [r3, #12]
 1308 0018 22F40072 		bic	r2, r2, #512
 1309 001c DA60     		str	r2, [r3, #12]
 1310 001e 22E0     		b	.L160
 1311              	.L156:
 1312 0020 0429     		cmp	r1, #4
 1313 0022 09D1     		bne	.L158
 1314 0024 22F01002 		bic	r2, r2, #16
 1315 0028 1A62     		str	r2, [r3, #32]
 1316 002a 1A6A     		ldr	r2, [r3, #32]
 1317 002c 1A62     		str	r2, [r3, #32]
 1318 002e DA68     		ldr	r2, [r3, #12]
 1319 0030 22F48062 		bic	r2, r2, #1024
 1320 0034 DA60     		str	r2, [r3, #12]
 1321 0036 15E0     		b	.L161
 1322              	.L158:
 1323 0038 22F00102 		bic	r2, r2, #1
 1324 003c 1A62     		str	r2, [r3, #32]
 1325 003e 1A6A     		ldr	r2, [r3, #32]
 1326 0040 406A     		ldr	r0, [r0, #36]
 1327 0042 1A62     		str	r2, [r3, #32]
ARM GAS  /tmp/ccRVpOvn.s 			page 23


 1328 0044 1A6A     		ldr	r2, [r3, #32]
 1329 0046 22F01002 		bic	r2, r2, #16
 1330 004a 1A62     		str	r2, [r3, #32]
 1331 004c 1A6A     		ldr	r2, [r3, #32]
 1332 004e 1A62     		str	r2, [r3, #32]
 1333 0050 DA68     		ldr	r2, [r3, #12]
 1334 0052 22F40072 		bic	r2, r2, #512
 1335 0056 DA60     		str	r2, [r3, #12]
 1336 0058 DA68     		ldr	r2, [r3, #12]
 1337 005a 22F48062 		bic	r2, r2, #1024
 1338 005e DA60     		str	r2, [r3, #12]
 1339 0060 FFF7FEFF 		bl	HAL_DMA_Abort_IT
 1340              	.L161:
 1341 0064 A06A     		ldr	r0, [r4, #40]
 1342              	.L160:
 1343 0066 FFF7FEFF 		bl	HAL_DMA_Abort_IT
 1344 006a 41F21112 		movw	r2, #4369
 1345 006e 2368     		ldr	r3, [r4]
 1346 0070 196A     		ldr	r1, [r3, #32]
 1347 0072 0A40     		ands	r2, r2, r1
 1348 0074 42B9     		cbnz	r2, .L159
 1349 0076 40F24442 		movw	r2, #1092
 1350 007a 196A     		ldr	r1, [r3, #32]
 1351 007c 0A40     		ands	r2, r2, r1
 1352 007e 1AB9     		cbnz	r2, .L159
 1353 0080 1A68     		ldr	r2, [r3]
 1354 0082 22F00102 		bic	r2, r2, #1
 1355 0086 1A60     		str	r2, [r3]
 1356              	.L159:
 1357 0088 0123     		movs	r3, #1
 1358 008a 84F83D30 		strb	r3, [r4, #61]
 1359 008e 0020     		movs	r0, #0
 1360 0090 10BD     		pop	{r4, pc}
 1362              		.section	.text.HAL_TIM_DMABurst_WriteStart,"ax",%progbits
 1363              		.align	1
 1364              		.global	HAL_TIM_DMABurst_WriteStart
 1365              		.thumb
 1366              		.thumb_func
 1368              	HAL_TIM_DMABurst_WriteStart:
 1369              		@ args = 4, pretend = 0, frame = 0
 1370              		@ frame_needed = 0, uses_anonymous_args = 0
 1371 0000 F8B5     		push	{r3, r4, r5, r6, r7, lr}
 1372 0002 0446     		mov	r4, r0
 1373 0004 90F83D00 		ldrb	r0, [r0, #61]	@ zero_extendqisi2
 1374 0008 0F46     		mov	r7, r1
 1375 000a C0B2     		uxtb	r0, r0
 1376 000c 0228     		cmp	r0, #2
 1377 000e 1646     		mov	r6, r2
 1378 0010 1946     		mov	r1, r3
 1379 0012 069D     		ldr	r5, [sp, #24]
 1380 0014 4ED0     		beq	.L163
 1381 0016 94F83D30 		ldrb	r3, [r4, #61]	@ zero_extendqisi2
 1382 001a 012B     		cmp	r3, #1
 1383 001c 06D1     		bne	.L164
 1384 001e 11B9     		cbnz	r1, .L165
 1385 0020 0DB1     		cbz	r5, .L165
 1386              	.L175:
ARM GAS  /tmp/ccRVpOvn.s 			page 24


 1387 0022 0120     		movs	r0, #1
 1388 0024 F8BD     		pop	{r3, r4, r5, r6, r7, pc}
 1389              	.L165:
 1390 0026 0223     		movs	r3, #2
 1391 0028 84F83D30 		strb	r3, [r4, #61]
 1392              	.L164:
 1393 002c B6F5006F 		cmp	r6, #2048
 1394 0030 2268     		ldr	r2, [r4]
 1395 0032 20D0     		beq	.L167
 1396 0034 0DD8     		bhi	.L168
 1397 0036 B6F5007F 		cmp	r6, #512
 1398 003a 15D0     		beq	.L169
 1399 003c B6F5806F 		cmp	r6, #1024
 1400 0040 14D0     		beq	.L170
 1401 0042 B6F5807F 		cmp	r6, #256
 1402 0046 2BD1     		bne	.L166
 1403 0048 1B4B     		ldr	r3, .L189
 1404 004a 206A     		ldr	r0, [r4, #32]
 1405 004c 8362     		str	r3, [r0, #40]
 1406 004e 1B4B     		ldr	r3, .L189+4
 1407 0050 1CE0     		b	.L182
 1408              	.L168:
 1409 0052 B6F5005F 		cmp	r6, #8192
 1410 0056 10D0     		beq	.L172
 1411 0058 B6F5804F 		cmp	r6, #16384
 1412 005c 12D0     		beq	.L173
 1413 005e B6F5805F 		cmp	r6, #4096
 1414 0062 1DD1     		bne	.L166
 1415 0064 206B     		ldr	r0, [r4, #48]
 1416 0066 02E0     		b	.L188
 1417              	.L169:
 1418 0068 606A     		ldr	r0, [r4, #36]
 1419 006a 00E0     		b	.L188
 1420              	.L170:
 1421 006c A06A     		ldr	r0, [r4, #40]
 1422              	.L188:
 1423 006e 144B     		ldr	r3, .L189+8
 1424 0070 8362     		str	r3, [r0, #40]
 1425 0072 144B     		ldr	r3, .L189+12
 1426 0074 0AE0     		b	.L182
 1427              	.L167:
 1428 0076 E06A     		ldr	r0, [r4, #44]
 1429 0078 F9E7     		b	.L188
 1430              	.L172:
 1431 007a 134B     		ldr	r3, .L189+16
 1432 007c 606B     		ldr	r0, [r4, #52]
 1433 007e 8362     		str	r3, [r0, #40]
 1434 0080 124B     		ldr	r3, .L189+20
 1435 0082 03E0     		b	.L182
 1436              	.L173:
 1437 0084 124B     		ldr	r3, .L189+24
 1438 0086 A06B     		ldr	r0, [r4, #56]
 1439 0088 8362     		str	r3, [r0, #40]
 1440 008a 124B     		ldr	r3, .L189+28
 1441              	.L182:
 1442 008c C362     		str	r3, [r0, #44]
 1443 008e 124B     		ldr	r3, .L189+32
ARM GAS  /tmp/ccRVpOvn.s 			page 25


 1444 0090 4C32     		adds	r2, r2, #76
 1445 0092 0363     		str	r3, [r0, #48]
 1446 0094 2B0A     		lsrs	r3, r5, #8
 1447 0096 0133     		adds	r3, r3, #1
 1448 0098 FFF7FEFF 		bl	HAL_DMA_Start_IT
 1449 009c 0028     		cmp	r0, #0
 1450 009e C0D1     		bne	.L175
 1451              	.L166:
 1452 00a0 2368     		ldr	r3, [r4]
 1453 00a2 3D43     		orrs	r5, r5, r7
 1454 00a4 9D64     		str	r5, [r3, #72]
 1455 00a6 DA68     		ldr	r2, [r3, #12]
 1456 00a8 0020     		movs	r0, #0
 1457 00aa 1643     		orrs	r6, r6, r2
 1458 00ac DE60     		str	r6, [r3, #12]
 1459 00ae 0123     		movs	r3, #1
 1460 00b0 84F83D30 		strb	r3, [r4, #61]
 1461              	.L163:
 1462 00b4 F8BD     		pop	{r3, r4, r5, r6, r7, pc}
 1463              	.L190:
 1464 00b6 00BF     		.align	2
 1465              	.L189:
 1466 00b8 00000000 		.word	TIM_DMAPeriodElapsedCplt
 1467 00bc 00000000 		.word	TIM_DMAPeriodElapsedHalfCplt
 1468 00c0 00000000 		.word	TIM_DMADelayPulseCplt
 1469 00c4 00000000 		.word	TIM_DMADelayPulseHalfCplt
 1470 00c8 00000000 		.word	TIMEx_DMACommutationCplt
 1471 00cc 00000000 		.word	TIMEx_DMACommutationHalfCplt
 1472 00d0 00000000 		.word	TIM_DMATriggerCplt
 1473 00d4 00000000 		.word	TIM_DMATriggerHalfCplt
 1474 00d8 00000000 		.word	TIM_DMAError
 1476              		.section	.text.HAL_TIM_DMABurst_WriteStop,"ax",%progbits
 1477              		.align	1
 1478              		.global	HAL_TIM_DMABurst_WriteStop
 1479              		.thumb
 1480              		.thumb_func
 1482              	HAL_TIM_DMABurst_WriteStop:
 1483              		@ args = 0, pretend = 0, frame = 0
 1484              		@ frame_needed = 0, uses_anonymous_args = 0
 1485 0000 B1F5006F 		cmp	r1, #2048
 1486 0004 38B5     		push	{r3, r4, r5, lr}
 1487 0006 0546     		mov	r5, r0
 1488 0008 0C46     		mov	r4, r1
 1489 000a 1AD0     		beq	.L193
 1490 000c 0AD8     		bhi	.L194
 1491 000e B1F5007F 		cmp	r1, #512
 1492 0012 12D0     		beq	.L195
 1493 0014 B1F5806F 		cmp	r1, #1024
 1494 0018 11D0     		beq	.L196
 1495 001a B1F5807F 		cmp	r1, #256
 1496 001e 18D1     		bne	.L192
 1497 0020 006A     		ldr	r0, [r0, #32]
 1498 0022 13E0     		b	.L203
 1499              	.L194:
 1500 0024 B1F5005F 		cmp	r1, #8192
 1501 0028 0DD0     		beq	.L198
 1502 002a B1F5804F 		cmp	r1, #16384
ARM GAS  /tmp/ccRVpOvn.s 			page 26


 1503 002e 0CD0     		beq	.L199
 1504 0030 B1F5805F 		cmp	r1, #4096
 1505 0034 0DD1     		bne	.L192
 1506 0036 006B     		ldr	r0, [r0, #48]
 1507 0038 08E0     		b	.L203
 1508              	.L195:
 1509 003a 406A     		ldr	r0, [r0, #36]
 1510 003c 06E0     		b	.L203
 1511              	.L196:
 1512 003e 806A     		ldr	r0, [r0, #40]
 1513 0040 04E0     		b	.L203
 1514              	.L193:
 1515 0042 C06A     		ldr	r0, [r0, #44]
 1516 0044 02E0     		b	.L203
 1517              	.L198:
 1518 0046 406B     		ldr	r0, [r0, #52]
 1519 0048 00E0     		b	.L203
 1520              	.L199:
 1521 004a 806B     		ldr	r0, [r0, #56]
 1522              	.L203:
 1523 004c FFF7FEFF 		bl	HAL_DMA_Abort_IT
 1524 0050 28B9     		cbnz	r0, .L202
 1525              	.L192:
 1526 0052 2A68     		ldr	r2, [r5]
 1527 0054 0020     		movs	r0, #0
 1528 0056 D368     		ldr	r3, [r2, #12]
 1529 0058 23EA0404 		bic	r4, r3, r4
 1530 005c D460     		str	r4, [r2, #12]
 1531              	.L202:
 1532 005e 38BD     		pop	{r3, r4, r5, pc}
 1534              		.section	.text.HAL_TIM_DMABurst_ReadStart,"ax",%progbits
 1535              		.align	1
 1536              		.global	HAL_TIM_DMABurst_ReadStart
 1537              		.thumb
 1538              		.thumb_func
 1540              	HAL_TIM_DMABurst_ReadStart:
 1541              		@ args = 4, pretend = 0, frame = 0
 1542              		@ frame_needed = 0, uses_anonymous_args = 0
 1543 0000 F8B5     		push	{r3, r4, r5, r6, r7, lr}
 1544 0002 0446     		mov	r4, r0
 1545 0004 90F83D00 		ldrb	r0, [r0, #61]	@ zero_extendqisi2
 1546 0008 1646     		mov	r6, r2
 1547 000a C0B2     		uxtb	r0, r0
 1548 000c 0228     		cmp	r0, #2
 1549 000e 0F46     		mov	r7, r1
 1550 0010 1A46     		mov	r2, r3
 1551 0012 069D     		ldr	r5, [sp, #24]
 1552 0014 4ED0     		beq	.L205
 1553 0016 94F83D30 		ldrb	r3, [r4, #61]	@ zero_extendqisi2
 1554 001a 012B     		cmp	r3, #1
 1555 001c 06D1     		bne	.L206
 1556 001e 12B9     		cbnz	r2, .L207
 1557 0020 0DB1     		cbz	r5, .L207
 1558              	.L217:
 1559 0022 0120     		movs	r0, #1
 1560 0024 F8BD     		pop	{r3, r4, r5, r6, r7, pc}
 1561              	.L207:
ARM GAS  /tmp/ccRVpOvn.s 			page 27


 1562 0026 0223     		movs	r3, #2
 1563 0028 84F83D30 		strb	r3, [r4, #61]
 1564              	.L206:
 1565 002c B6F5006F 		cmp	r6, #2048
 1566 0030 2168     		ldr	r1, [r4]
 1567 0032 20D0     		beq	.L209
 1568 0034 0DD8     		bhi	.L210
 1569 0036 B6F5007F 		cmp	r6, #512
 1570 003a 15D0     		beq	.L211
 1571 003c B6F5806F 		cmp	r6, #1024
 1572 0040 14D0     		beq	.L212
 1573 0042 B6F5807F 		cmp	r6, #256
 1574 0046 2BD1     		bne	.L208
 1575 0048 1B4B     		ldr	r3, .L231
 1576 004a 206A     		ldr	r0, [r4, #32]
 1577 004c 8362     		str	r3, [r0, #40]
 1578 004e 1B4B     		ldr	r3, .L231+4
 1579 0050 1CE0     		b	.L224
 1580              	.L210:
 1581 0052 B6F5005F 		cmp	r6, #8192
 1582 0056 10D0     		beq	.L214
 1583 0058 B6F5804F 		cmp	r6, #16384
 1584 005c 12D0     		beq	.L215
 1585 005e B6F5805F 		cmp	r6, #4096
 1586 0062 1DD1     		bne	.L208
 1587 0064 206B     		ldr	r0, [r4, #48]
 1588 0066 02E0     		b	.L230
 1589              	.L211:
 1590 0068 606A     		ldr	r0, [r4, #36]
 1591 006a 00E0     		b	.L230
 1592              	.L212:
 1593 006c A06A     		ldr	r0, [r4, #40]
 1594              	.L230:
 1595 006e 144B     		ldr	r3, .L231+8
 1596 0070 8362     		str	r3, [r0, #40]
 1597 0072 144B     		ldr	r3, .L231+12
 1598 0074 0AE0     		b	.L224
 1599              	.L209:
 1600 0076 E06A     		ldr	r0, [r4, #44]
 1601 0078 F9E7     		b	.L230
 1602              	.L214:
 1603 007a 134B     		ldr	r3, .L231+16
 1604 007c 606B     		ldr	r0, [r4, #52]
 1605 007e 8362     		str	r3, [r0, #40]
 1606 0080 124B     		ldr	r3, .L231+20
 1607 0082 03E0     		b	.L224
 1608              	.L215:
 1609 0084 124B     		ldr	r3, .L231+24
 1610 0086 A06B     		ldr	r0, [r4, #56]
 1611 0088 8362     		str	r3, [r0, #40]
 1612 008a 124B     		ldr	r3, .L231+28
 1613              	.L224:
 1614 008c C362     		str	r3, [r0, #44]
 1615 008e 124B     		ldr	r3, .L231+32
 1616 0090 4C31     		adds	r1, r1, #76
 1617 0092 0363     		str	r3, [r0, #48]
 1618 0094 2B0A     		lsrs	r3, r5, #8
ARM GAS  /tmp/ccRVpOvn.s 			page 28


 1619 0096 0133     		adds	r3, r3, #1
 1620 0098 FFF7FEFF 		bl	HAL_DMA_Start_IT
 1621 009c 0028     		cmp	r0, #0
 1622 009e C0D1     		bne	.L217
 1623              	.L208:
 1624 00a0 2368     		ldr	r3, [r4]
 1625 00a2 3D43     		orrs	r5, r5, r7
 1626 00a4 9D64     		str	r5, [r3, #72]
 1627 00a6 DA68     		ldr	r2, [r3, #12]
 1628 00a8 0020     		movs	r0, #0
 1629 00aa 1643     		orrs	r6, r6, r2
 1630 00ac DE60     		str	r6, [r3, #12]
 1631 00ae 0123     		movs	r3, #1
 1632 00b0 84F83D30 		strb	r3, [r4, #61]
 1633              	.L205:
 1634 00b4 F8BD     		pop	{r3, r4, r5, r6, r7, pc}
 1635              	.L232:
 1636 00b6 00BF     		.align	2
 1637              	.L231:
 1638 00b8 00000000 		.word	TIM_DMAPeriodElapsedCplt
 1639 00bc 00000000 		.word	TIM_DMAPeriodElapsedHalfCplt
 1640 00c0 00000000 		.word	TIM_DMACaptureCplt
 1641 00c4 00000000 		.word	TIM_DMACaptureHalfCplt
 1642 00c8 00000000 		.word	TIMEx_DMACommutationCplt
 1643 00cc 00000000 		.word	TIMEx_DMACommutationHalfCplt
 1644 00d0 00000000 		.word	TIM_DMATriggerCplt
 1645 00d4 00000000 		.word	TIM_DMATriggerHalfCplt
 1646 00d8 00000000 		.word	TIM_DMAError
 1648              		.section	.text.HAL_TIM_DMABurst_ReadStop,"ax",%progbits
 1649              		.align	1
 1650              		.global	HAL_TIM_DMABurst_ReadStop
 1651              		.thumb
 1652              		.thumb_func
 1654              	HAL_TIM_DMABurst_ReadStop:
 1655              		@ args = 0, pretend = 0, frame = 0
 1656              		@ frame_needed = 0, uses_anonymous_args = 0
 1657 0000 B1F5006F 		cmp	r1, #2048
 1658 0004 38B5     		push	{r3, r4, r5, lr}
 1659 0006 0546     		mov	r5, r0
 1660 0008 0C46     		mov	r4, r1
 1661 000a 1AD0     		beq	.L235
 1662 000c 0AD8     		bhi	.L236
 1663 000e B1F5007F 		cmp	r1, #512
 1664 0012 12D0     		beq	.L237
 1665 0014 B1F5806F 		cmp	r1, #1024
 1666 0018 11D0     		beq	.L238
 1667 001a B1F5807F 		cmp	r1, #256
 1668 001e 18D1     		bne	.L234
 1669 0020 006A     		ldr	r0, [r0, #32]
 1670 0022 13E0     		b	.L245
 1671              	.L236:
 1672 0024 B1F5005F 		cmp	r1, #8192
 1673 0028 0DD0     		beq	.L240
 1674 002a B1F5804F 		cmp	r1, #16384
 1675 002e 0CD0     		beq	.L241
 1676 0030 B1F5805F 		cmp	r1, #4096
 1677 0034 0DD1     		bne	.L234
ARM GAS  /tmp/ccRVpOvn.s 			page 29


 1678 0036 006B     		ldr	r0, [r0, #48]
 1679 0038 08E0     		b	.L245
 1680              	.L237:
 1681 003a 406A     		ldr	r0, [r0, #36]
 1682 003c 06E0     		b	.L245
 1683              	.L238:
 1684 003e 806A     		ldr	r0, [r0, #40]
 1685 0040 04E0     		b	.L245
 1686              	.L235:
 1687 0042 C06A     		ldr	r0, [r0, #44]
 1688 0044 02E0     		b	.L245
 1689              	.L240:
 1690 0046 406B     		ldr	r0, [r0, #52]
 1691 0048 00E0     		b	.L245
 1692              	.L241:
 1693 004a 806B     		ldr	r0, [r0, #56]
 1694              	.L245:
 1695 004c FFF7FEFF 		bl	HAL_DMA_Abort_IT
 1696 0050 28B9     		cbnz	r0, .L244
 1697              	.L234:
 1698 0052 2A68     		ldr	r2, [r5]
 1699 0054 0020     		movs	r0, #0
 1700 0056 D368     		ldr	r3, [r2, #12]
 1701 0058 23EA0404 		bic	r4, r3, r4
 1702 005c D460     		str	r4, [r2, #12]
 1703              	.L244:
 1704 005e 38BD     		pop	{r3, r4, r5, pc}
 1706              		.section	.text.HAL_TIM_GenerateEvent,"ax",%progbits
 1707              		.align	1
 1708              		.global	HAL_TIM_GenerateEvent
 1709              		.thumb
 1710              		.thumb_func
 1712              	HAL_TIM_GenerateEvent:
 1713              		@ args = 0, pretend = 0, frame = 0
 1714              		@ frame_needed = 0, uses_anonymous_args = 0
 1715              		@ link register save eliminated.
 1716 0000 90F83C30 		ldrb	r3, [r0, #60]	@ zero_extendqisi2
 1717 0004 012B     		cmp	r3, #1
 1718 0006 4FF00203 		mov	r3, #2
 1719 000a 09D0     		beq	.L248
 1720 000c 80F83D30 		strb	r3, [r0, #61]
 1721 0010 0368     		ldr	r3, [r0]
 1722 0012 5961     		str	r1, [r3, #20]
 1723 0014 0123     		movs	r3, #1
 1724 0016 80F83D30 		strb	r3, [r0, #61]
 1725 001a 0023     		movs	r3, #0
 1726 001c 80F83C30 		strb	r3, [r0, #60]
 1727              	.L248:
 1728 0020 1846     		mov	r0, r3
 1729 0022 7047     		bx	lr
 1731              		.section	.text.HAL_TIM_ConfigTI1Input,"ax",%progbits
 1732              		.align	1
 1733              		.global	HAL_TIM_ConfigTI1Input
 1734              		.thumb
 1735              		.thumb_func
 1737              	HAL_TIM_ConfigTI1Input:
 1738              		@ args = 0, pretend = 0, frame = 0
ARM GAS  /tmp/ccRVpOvn.s 			page 30


 1739              		@ frame_needed = 0, uses_anonymous_args = 0
 1740              		@ link register save eliminated.
 1741 0000 0268     		ldr	r2, [r0]
 1742 0002 0020     		movs	r0, #0
 1743 0004 5368     		ldr	r3, [r2, #4]
 1744 0006 23F08003 		bic	r3, r3, #128
 1745 000a 1943     		orrs	r1, r1, r3
 1746 000c 5160     		str	r1, [r2, #4]
 1747 000e 7047     		bx	lr
 1749              		.section	.text.HAL_TIM_ReadCapturedValue,"ax",%progbits
 1750              		.align	1
 1751              		.global	HAL_TIM_ReadCapturedValue
 1752              		.thumb
 1753              		.thumb_func
 1755              	HAL_TIM_ReadCapturedValue:
 1756              		@ args = 0, pretend = 0, frame = 0
 1757              		@ frame_needed = 0, uses_anonymous_args = 0
 1758              		@ link register save eliminated.
 1759 0000 0C29     		cmp	r1, #12
 1760 0002 14D8     		bhi	.L257
 1761 0004 DFE801F0 		tbb	[pc, r1]
 1762              	.L253:
 1763 0008 07       		.byte	(.L252-.L253)/2
 1764 0009 13       		.byte	(.L257-.L253)/2
 1765 000a 13       		.byte	(.L257-.L253)/2
 1766 000b 13       		.byte	(.L257-.L253)/2
 1767 000c 0A       		.byte	(.L254-.L253)/2
 1768 000d 13       		.byte	(.L257-.L253)/2
 1769 000e 13       		.byte	(.L257-.L253)/2
 1770 000f 13       		.byte	(.L257-.L253)/2
 1771 0010 0D       		.byte	(.L255-.L253)/2
 1772 0011 13       		.byte	(.L257-.L253)/2
 1773 0012 13       		.byte	(.L257-.L253)/2
 1774 0013 13       		.byte	(.L257-.L253)/2
 1775 0014 10       		.byte	(.L256-.L253)/2
 1776 0015 00       		.p2align 1
 1777              	.L252:
 1778 0016 0368     		ldr	r3, [r0]
 1779 0018 586B     		ldr	r0, [r3, #52]
 1780 001a 7047     		bx	lr
 1781              	.L254:
 1782 001c 0368     		ldr	r3, [r0]
 1783 001e 986B     		ldr	r0, [r3, #56]
 1784 0020 7047     		bx	lr
 1785              	.L255:
 1786 0022 0368     		ldr	r3, [r0]
 1787 0024 D86B     		ldr	r0, [r3, #60]
 1788 0026 7047     		bx	lr
 1789              	.L256:
 1790 0028 0368     		ldr	r3, [r0]
 1791 002a 186C     		ldr	r0, [r3, #64]
 1792 002c 7047     		bx	lr
 1793              	.L257:
 1794 002e 0020     		movs	r0, #0
 1795 0030 7047     		bx	lr
 1797              		.section	.text.HAL_TIM_PeriodElapsedCallback,"ax",%progbits
 1798              		.align	1
ARM GAS  /tmp/ccRVpOvn.s 			page 31


 1799              		.weak	HAL_TIM_PeriodElapsedCallback
 1800              		.thumb
 1801              		.thumb_func
 1803              	HAL_TIM_PeriodElapsedCallback:
 1804              		@ args = 0, pretend = 0, frame = 0
 1805              		@ frame_needed = 0, uses_anonymous_args = 0
 1806              		@ link register save eliminated.
 1807 0000 7047     		bx	lr
 1809              		.section	.text.TIM_DMAPeriodElapsedCplt,"ax",%progbits
 1810              		.align	1
 1811              		.thumb
 1812              		.thumb_func
 1814              	TIM_DMAPeriodElapsedCplt:
 1815              		@ args = 0, pretend = 0, frame = 0
 1816              		@ frame_needed = 0, uses_anonymous_args = 0
 1817 0000 08B5     		push	{r3, lr}
 1818 0002 406A     		ldr	r0, [r0, #36]
 1819 0004 0123     		movs	r3, #1
 1820 0006 80F83D30 		strb	r3, [r0, #61]
 1821 000a FFF7FEFF 		bl	HAL_TIM_PeriodElapsedCallback
 1822 000e 08BD     		pop	{r3, pc}
 1824              		.section	.text.HAL_TIM_PeriodElapsedHalfCpltCallback,"ax",%progbits
 1825              		.align	1
 1826              		.weak	HAL_TIM_PeriodElapsedHalfCpltCallback
 1827              		.thumb
 1828              		.thumb_func
 1830              	HAL_TIM_PeriodElapsedHalfCpltCallback:
 1831              		@ args = 0, pretend = 0, frame = 0
 1832              		@ frame_needed = 0, uses_anonymous_args = 0
 1833              		@ link register save eliminated.
 1834 0000 7047     		bx	lr
 1836              		.section	.text.TIM_DMAPeriodElapsedHalfCplt,"ax",%progbits
 1837              		.align	1
 1838              		.thumb
 1839              		.thumb_func
 1841              	TIM_DMAPeriodElapsedHalfCplt:
 1842              		@ args = 0, pretend = 0, frame = 0
 1843              		@ frame_needed = 0, uses_anonymous_args = 0
 1844 0000 08B5     		push	{r3, lr}
 1845 0002 406A     		ldr	r0, [r0, #36]
 1846 0004 0123     		movs	r3, #1
 1847 0006 80F83D30 		strb	r3, [r0, #61]
 1848 000a FFF7FEFF 		bl	HAL_TIM_PeriodElapsedHalfCpltCallback
 1849 000e 08BD     		pop	{r3, pc}
 1851              		.section	.text.HAL_TIM_OC_DelayElapsedCallback,"ax",%progbits
 1852              		.align	1
 1853              		.weak	HAL_TIM_OC_DelayElapsedCallback
 1854              		.thumb
 1855              		.thumb_func
 1857              	HAL_TIM_OC_DelayElapsedCallback:
 1858              		@ args = 0, pretend = 0, frame = 0
 1859              		@ frame_needed = 0, uses_anonymous_args = 0
 1860              		@ link register save eliminated.
 1861 0000 7047     		bx	lr
 1863              		.section	.text.HAL_TIM_IC_CaptureCallback,"ax",%progbits
 1864              		.align	1
 1865              		.weak	HAL_TIM_IC_CaptureCallback
ARM GAS  /tmp/ccRVpOvn.s 			page 32


 1866              		.thumb
 1867              		.thumb_func
 1869              	HAL_TIM_IC_CaptureCallback:
 1870              		@ args = 0, pretend = 0, frame = 0
 1871              		@ frame_needed = 0, uses_anonymous_args = 0
 1872              		@ link register save eliminated.
 1873 0000 7047     		bx	lr
 1875              		.section	.text.TIM_DMACaptureCplt,"ax",%progbits
 1876              		.align	1
 1877              		.global	TIM_DMACaptureCplt
 1878              		.thumb
 1879              		.thumb_func
 1881              	TIM_DMACaptureCplt:
 1882              		@ args = 0, pretend = 0, frame = 0
 1883              		@ frame_needed = 0, uses_anonymous_args = 0
 1884 0000 10B5     		push	{r4, lr}
 1885 0002 446A     		ldr	r4, [r0, #36]
 1886 0004 0123     		movs	r3, #1
 1887 0006 626A     		ldr	r2, [r4, #36]
 1888 0008 84F83D30 		strb	r3, [r4, #61]
 1889 000c 9042     		cmp	r0, r2
 1890 000e 0DD0     		beq	.L269
 1891 0010 A36A     		ldr	r3, [r4, #40]
 1892 0012 9842     		cmp	r0, r3
 1893 0014 01D1     		bne	.L267
 1894 0016 0223     		movs	r3, #2
 1895 0018 08E0     		b	.L269
 1896              	.L267:
 1897 001a E36A     		ldr	r3, [r4, #44]
 1898 001c 9842     		cmp	r0, r3
 1899 001e 01D1     		bne	.L268
 1900 0020 0423     		movs	r3, #4
 1901 0022 03E0     		b	.L269
 1902              	.L268:
 1903 0024 236B     		ldr	r3, [r4, #48]
 1904 0026 9842     		cmp	r0, r3
 1905 0028 01D1     		bne	.L266
 1906 002a 0823     		movs	r3, #8
 1907              	.L269:
 1908 002c 2377     		strb	r3, [r4, #28]
 1909              	.L266:
 1910 002e 2046     		mov	r0, r4
 1911 0030 FFF7FEFF 		bl	HAL_TIM_IC_CaptureCallback
 1912 0034 0023     		movs	r3, #0
 1913 0036 2377     		strb	r3, [r4, #28]
 1914 0038 10BD     		pop	{r4, pc}
 1916              		.section	.text.HAL_TIM_IC_CaptureHalfCpltCallback,"ax",%progbits
 1917              		.align	1
 1918              		.weak	HAL_TIM_IC_CaptureHalfCpltCallback
 1919              		.thumb
 1920              		.thumb_func
 1922              	HAL_TIM_IC_CaptureHalfCpltCallback:
 1923              		@ args = 0, pretend = 0, frame = 0
 1924              		@ frame_needed = 0, uses_anonymous_args = 0
 1925              		@ link register save eliminated.
 1926 0000 7047     		bx	lr
 1928              		.section	.text.TIM_DMACaptureHalfCplt,"ax",%progbits
ARM GAS  /tmp/ccRVpOvn.s 			page 33


 1929              		.align	1
 1930              		.global	TIM_DMACaptureHalfCplt
 1931              		.thumb
 1932              		.thumb_func
 1934              	TIM_DMACaptureHalfCplt:
 1935              		@ args = 0, pretend = 0, frame = 0
 1936              		@ frame_needed = 0, uses_anonymous_args = 0
 1937 0000 10B5     		push	{r4, lr}
 1938 0002 446A     		ldr	r4, [r0, #36]
 1939 0004 0123     		movs	r3, #1
 1940 0006 626A     		ldr	r2, [r4, #36]
 1941 0008 84F83D30 		strb	r3, [r4, #61]
 1942 000c 9042     		cmp	r0, r2
 1943 000e 0DD0     		beq	.L276
 1944 0010 A36A     		ldr	r3, [r4, #40]
 1945 0012 9842     		cmp	r0, r3
 1946 0014 01D1     		bne	.L274
 1947 0016 0223     		movs	r3, #2
 1948 0018 08E0     		b	.L276
 1949              	.L274:
 1950 001a E36A     		ldr	r3, [r4, #44]
 1951 001c 9842     		cmp	r0, r3
 1952 001e 01D1     		bne	.L275
 1953 0020 0423     		movs	r3, #4
 1954 0022 03E0     		b	.L276
 1955              	.L275:
 1956 0024 236B     		ldr	r3, [r4, #48]
 1957 0026 9842     		cmp	r0, r3
 1958 0028 01D1     		bne	.L273
 1959 002a 0823     		movs	r3, #8
 1960              	.L276:
 1961 002c 2377     		strb	r3, [r4, #28]
 1962              	.L273:
 1963 002e 2046     		mov	r0, r4
 1964 0030 FFF7FEFF 		bl	HAL_TIM_IC_CaptureHalfCpltCallback
 1965 0034 0023     		movs	r3, #0
 1966 0036 2377     		strb	r3, [r4, #28]
 1967 0038 10BD     		pop	{r4, pc}
 1969              		.section	.text.HAL_TIM_PWM_PulseFinishedCallback,"ax",%progbits
 1970              		.align	1
 1971              		.weak	HAL_TIM_PWM_PulseFinishedCallback
 1972              		.thumb
 1973              		.thumb_func
 1975              	HAL_TIM_PWM_PulseFinishedCallback:
 1976              		@ args = 0, pretend = 0, frame = 0
 1977              		@ frame_needed = 0, uses_anonymous_args = 0
 1978              		@ link register save eliminated.
 1979 0000 7047     		bx	lr
 1981              		.section	.text.TIM_DMADelayPulseCplt,"ax",%progbits
 1982              		.align	1
 1983              		.global	TIM_DMADelayPulseCplt
 1984              		.thumb
 1985              		.thumb_func
 1987              	TIM_DMADelayPulseCplt:
 1988              		@ args = 0, pretend = 0, frame = 0
 1989              		@ frame_needed = 0, uses_anonymous_args = 0
 1990 0000 10B5     		push	{r4, lr}
ARM GAS  /tmp/ccRVpOvn.s 			page 34


 1991 0002 446A     		ldr	r4, [r0, #36]
 1992 0004 0123     		movs	r3, #1
 1993 0006 626A     		ldr	r2, [r4, #36]
 1994 0008 84F83D30 		strb	r3, [r4, #61]
 1995 000c 9042     		cmp	r0, r2
 1996 000e 0DD0     		beq	.L283
 1997 0010 A36A     		ldr	r3, [r4, #40]
 1998 0012 9842     		cmp	r0, r3
 1999 0014 01D1     		bne	.L281
 2000 0016 0223     		movs	r3, #2
 2001 0018 08E0     		b	.L283
 2002              	.L281:
 2003 001a E36A     		ldr	r3, [r4, #44]
 2004 001c 9842     		cmp	r0, r3
 2005 001e 01D1     		bne	.L282
 2006 0020 0423     		movs	r3, #4
 2007 0022 03E0     		b	.L283
 2008              	.L282:
 2009 0024 236B     		ldr	r3, [r4, #48]
 2010 0026 9842     		cmp	r0, r3
 2011 0028 01D1     		bne	.L280
 2012 002a 0823     		movs	r3, #8
 2013              	.L283:
 2014 002c 2377     		strb	r3, [r4, #28]
 2015              	.L280:
 2016 002e 2046     		mov	r0, r4
 2017 0030 FFF7FEFF 		bl	HAL_TIM_PWM_PulseFinishedCallback
 2018 0034 0023     		movs	r3, #0
 2019 0036 2377     		strb	r3, [r4, #28]
 2020 0038 10BD     		pop	{r4, pc}
 2022              		.section	.text.HAL_TIM_PWM_PulseFinishedHalfCpltCallback,"ax",%progbits
 2023              		.align	1
 2024              		.weak	HAL_TIM_PWM_PulseFinishedHalfCpltCallback
 2025              		.thumb
 2026              		.thumb_func
 2028              	HAL_TIM_PWM_PulseFinishedHalfCpltCallback:
 2029              		@ args = 0, pretend = 0, frame = 0
 2030              		@ frame_needed = 0, uses_anonymous_args = 0
 2031              		@ link register save eliminated.
 2032 0000 7047     		bx	lr
 2034              		.section	.text.TIM_DMADelayPulseHalfCplt,"ax",%progbits
 2035              		.align	1
 2036              		.global	TIM_DMADelayPulseHalfCplt
 2037              		.thumb
 2038              		.thumb_func
 2040              	TIM_DMADelayPulseHalfCplt:
 2041              		@ args = 0, pretend = 0, frame = 0
 2042              		@ frame_needed = 0, uses_anonymous_args = 0
 2043 0000 10B5     		push	{r4, lr}
 2044 0002 446A     		ldr	r4, [r0, #36]
 2045 0004 0123     		movs	r3, #1
 2046 0006 626A     		ldr	r2, [r4, #36]
 2047 0008 84F83D30 		strb	r3, [r4, #61]
 2048 000c 9042     		cmp	r0, r2
 2049 000e 0DD0     		beq	.L290
 2050 0010 A36A     		ldr	r3, [r4, #40]
 2051 0012 9842     		cmp	r0, r3
ARM GAS  /tmp/ccRVpOvn.s 			page 35


 2052 0014 01D1     		bne	.L288
 2053 0016 0223     		movs	r3, #2
 2054 0018 08E0     		b	.L290
 2055              	.L288:
 2056 001a E36A     		ldr	r3, [r4, #44]
 2057 001c 9842     		cmp	r0, r3
 2058 001e 01D1     		bne	.L289
 2059 0020 0423     		movs	r3, #4
 2060 0022 03E0     		b	.L290
 2061              	.L289:
 2062 0024 236B     		ldr	r3, [r4, #48]
 2063 0026 9842     		cmp	r0, r3
 2064 0028 01D1     		bne	.L287
 2065 002a 0823     		movs	r3, #8
 2066              	.L290:
 2067 002c 2377     		strb	r3, [r4, #28]
 2068              	.L287:
 2069 002e 2046     		mov	r0, r4
 2070 0030 FFF7FEFF 		bl	HAL_TIM_PWM_PulseFinishedHalfCpltCallback
 2071 0034 0023     		movs	r3, #0
 2072 0036 2377     		strb	r3, [r4, #28]
 2073 0038 10BD     		pop	{r4, pc}
 2075              		.section	.text.HAL_TIM_TriggerCallback,"ax",%progbits
 2076              		.align	1
 2077              		.weak	HAL_TIM_TriggerCallback
 2078              		.thumb
 2079              		.thumb_func
 2081              	HAL_TIM_TriggerCallback:
 2082              		@ args = 0, pretend = 0, frame = 0
 2083              		@ frame_needed = 0, uses_anonymous_args = 0
 2084              		@ link register save eliminated.
 2085 0000 7047     		bx	lr
 2087              		.section	.text.HAL_TIM_IRQHandler,"ax",%progbits
 2088              		.align	1
 2089              		.global	HAL_TIM_IRQHandler
 2090              		.thumb
 2091              		.thumb_func
 2093              	HAL_TIM_IRQHandler:
 2094              		@ args = 0, pretend = 0, frame = 0
 2095              		@ frame_needed = 0, uses_anonymous_args = 0
 2096 0000 0368     		ldr	r3, [r0]
 2097 0002 10B5     		push	{r4, lr}
 2098 0004 1A69     		ldr	r2, [r3, #16]
 2099 0006 0446     		mov	r4, r0
 2100 0008 9107     		lsls	r1, r2, #30
 2101 000a 14D5     		bpl	.L293
 2102 000c DA68     		ldr	r2, [r3, #12]
 2103 000e 9207     		lsls	r2, r2, #30
 2104 0010 11D5     		bpl	.L293
 2105 0012 6FF00202 		mvn	r2, #2
 2106 0016 1A61     		str	r2, [r3, #16]
 2107 0018 9B69     		ldr	r3, [r3, #24]
 2108 001a 0122     		movs	r2, #1
 2109 001c 9B07     		lsls	r3, r3, #30
 2110 001e 0277     		strb	r2, [r0, #28]
 2111 0020 02D0     		beq	.L294
 2112 0022 FFF7FEFF 		bl	HAL_TIM_IC_CaptureCallback
ARM GAS  /tmp/ccRVpOvn.s 			page 36


 2113 0026 04E0     		b	.L295
 2114              	.L294:
 2115 0028 FFF7FEFF 		bl	HAL_TIM_OC_DelayElapsedCallback
 2116 002c 2046     		mov	r0, r4
 2117 002e FFF7FEFF 		bl	HAL_TIM_PWM_PulseFinishedCallback
 2118              	.L295:
 2119 0032 0023     		movs	r3, #0
 2120 0034 2377     		strb	r3, [r4, #28]
 2121              	.L293:
 2122 0036 2368     		ldr	r3, [r4]
 2123 0038 1A69     		ldr	r2, [r3, #16]
 2124 003a 5007     		lsls	r0, r2, #29
 2125 003c 16D5     		bpl	.L296
 2126 003e DA68     		ldr	r2, [r3, #12]
 2127 0040 5107     		lsls	r1, r2, #29
 2128 0042 13D5     		bpl	.L296
 2129 0044 6FF00402 		mvn	r2, #4
 2130 0048 1A61     		str	r2, [r3, #16]
 2131 004a 9B69     		ldr	r3, [r3, #24]
 2132 004c 0222     		movs	r2, #2
 2133 004e 13F4407F 		tst	r3, #768
 2134 0052 2277     		strb	r2, [r4, #28]
 2135 0054 2046     		mov	r0, r4
 2136 0056 02D0     		beq	.L297
 2137 0058 FFF7FEFF 		bl	HAL_TIM_IC_CaptureCallback
 2138 005c 04E0     		b	.L298
 2139              	.L297:
 2140 005e FFF7FEFF 		bl	HAL_TIM_OC_DelayElapsedCallback
 2141 0062 2046     		mov	r0, r4
 2142 0064 FFF7FEFF 		bl	HAL_TIM_PWM_PulseFinishedCallback
 2143              	.L298:
 2144 0068 0023     		movs	r3, #0
 2145 006a 2377     		strb	r3, [r4, #28]
 2146              	.L296:
 2147 006c 2368     		ldr	r3, [r4]
 2148 006e 1A69     		ldr	r2, [r3, #16]
 2149 0070 1207     		lsls	r2, r2, #28
 2150 0072 15D5     		bpl	.L299
 2151 0074 DA68     		ldr	r2, [r3, #12]
 2152 0076 1007     		lsls	r0, r2, #28
 2153 0078 12D5     		bpl	.L299
 2154 007a 6FF00802 		mvn	r2, #8
 2155 007e 1A61     		str	r2, [r3, #16]
 2156 0080 DB69     		ldr	r3, [r3, #28]
 2157 0082 0422     		movs	r2, #4
 2158 0084 9907     		lsls	r1, r3, #30
 2159 0086 2277     		strb	r2, [r4, #28]
 2160 0088 2046     		mov	r0, r4
 2161 008a 02D0     		beq	.L300
 2162 008c FFF7FEFF 		bl	HAL_TIM_IC_CaptureCallback
 2163 0090 04E0     		b	.L301
 2164              	.L300:
 2165 0092 FFF7FEFF 		bl	HAL_TIM_OC_DelayElapsedCallback
 2166 0096 2046     		mov	r0, r4
 2167 0098 FFF7FEFF 		bl	HAL_TIM_PWM_PulseFinishedCallback
 2168              	.L301:
 2169 009c 0023     		movs	r3, #0
ARM GAS  /tmp/ccRVpOvn.s 			page 37


 2170 009e 2377     		strb	r3, [r4, #28]
 2171              	.L299:
 2172 00a0 2368     		ldr	r3, [r4]
 2173 00a2 1A69     		ldr	r2, [r3, #16]
 2174 00a4 D206     		lsls	r2, r2, #27
 2175 00a6 16D5     		bpl	.L302
 2176 00a8 DA68     		ldr	r2, [r3, #12]
 2177 00aa D006     		lsls	r0, r2, #27
 2178 00ac 13D5     		bpl	.L302
 2179 00ae 6FF01002 		mvn	r2, #16
 2180 00b2 1A61     		str	r2, [r3, #16]
 2181 00b4 DB69     		ldr	r3, [r3, #28]
 2182 00b6 0822     		movs	r2, #8
 2183 00b8 13F4407F 		tst	r3, #768
 2184 00bc 2277     		strb	r2, [r4, #28]
 2185 00be 2046     		mov	r0, r4
 2186 00c0 02D0     		beq	.L303
 2187 00c2 FFF7FEFF 		bl	HAL_TIM_IC_CaptureCallback
 2188 00c6 04E0     		b	.L304
 2189              	.L303:
 2190 00c8 FFF7FEFF 		bl	HAL_TIM_OC_DelayElapsedCallback
 2191 00cc 2046     		mov	r0, r4
 2192 00ce FFF7FEFF 		bl	HAL_TIM_PWM_PulseFinishedCallback
 2193              	.L304:
 2194 00d2 0023     		movs	r3, #0
 2195 00d4 2377     		strb	r3, [r4, #28]
 2196              	.L302:
 2197 00d6 2368     		ldr	r3, [r4]
 2198 00d8 1A69     		ldr	r2, [r3, #16]
 2199 00da D107     		lsls	r1, r2, #31
 2200 00dc 08D5     		bpl	.L305
 2201 00de DA68     		ldr	r2, [r3, #12]
 2202 00e0 D207     		lsls	r2, r2, #31
 2203 00e2 05D5     		bpl	.L305
 2204 00e4 6FF00102 		mvn	r2, #1
 2205 00e8 1A61     		str	r2, [r3, #16]
 2206 00ea 2046     		mov	r0, r4
 2207 00ec FFF7FEFF 		bl	HAL_TIM_PeriodElapsedCallback
 2208              	.L305:
 2209 00f0 2368     		ldr	r3, [r4]
 2210 00f2 1A69     		ldr	r2, [r3, #16]
 2211 00f4 1006     		lsls	r0, r2, #24
 2212 00f6 08D5     		bpl	.L306
 2213 00f8 DA68     		ldr	r2, [r3, #12]
 2214 00fa 1106     		lsls	r1, r2, #24
 2215 00fc 05D5     		bpl	.L306
 2216 00fe 6FF08002 		mvn	r2, #128
 2217 0102 1A61     		str	r2, [r3, #16]
 2218 0104 2046     		mov	r0, r4
 2219 0106 FFF7FEFF 		bl	HAL_TIMEx_BreakCallback
 2220              	.L306:
 2221 010a 2368     		ldr	r3, [r4]
 2222 010c 1A69     		ldr	r2, [r3, #16]
 2223 010e 5206     		lsls	r2, r2, #25
 2224 0110 08D5     		bpl	.L307
 2225 0112 DA68     		ldr	r2, [r3, #12]
 2226 0114 5006     		lsls	r0, r2, #25
ARM GAS  /tmp/ccRVpOvn.s 			page 38


 2227 0116 05D5     		bpl	.L307
 2228 0118 6FF04002 		mvn	r2, #64
 2229 011c 1A61     		str	r2, [r3, #16]
 2230 011e 2046     		mov	r0, r4
 2231 0120 FFF7FEFF 		bl	HAL_TIM_TriggerCallback
 2232              	.L307:
 2233 0124 2368     		ldr	r3, [r4]
 2234 0126 1A69     		ldr	r2, [r3, #16]
 2235 0128 9106     		lsls	r1, r2, #26
 2236 012a 0AD5     		bpl	.L292
 2237 012c DA68     		ldr	r2, [r3, #12]
 2238 012e 9206     		lsls	r2, r2, #26
 2239 0130 07D5     		bpl	.L292
 2240 0132 6FF02002 		mvn	r2, #32
 2241 0136 2046     		mov	r0, r4
 2242 0138 BDE81040 		pop	{r4, lr}
 2243 013c 1A61     		str	r2, [r3, #16]
 2244 013e FFF7FEBF 		b	HAL_TIMEx_CommutCallback
 2245              	.L292:
 2246 0142 10BD     		pop	{r4, pc}
 2248              		.section	.text.TIM_DMATriggerCplt,"ax",%progbits
 2249              		.align	1
 2250              		.thumb
 2251              		.thumb_func
 2253              	TIM_DMATriggerCplt:
 2254              		@ args = 0, pretend = 0, frame = 0
 2255              		@ frame_needed = 0, uses_anonymous_args = 0
 2256 0000 08B5     		push	{r3, lr}
 2257 0002 406A     		ldr	r0, [r0, #36]
 2258 0004 0123     		movs	r3, #1
 2259 0006 80F83D30 		strb	r3, [r0, #61]
 2260 000a FFF7FEFF 		bl	HAL_TIM_TriggerCallback
 2261 000e 08BD     		pop	{r3, pc}
 2263              		.section	.text.HAL_TIM_TriggerHalfCpltCallback,"ax",%progbits
 2264              		.align	1
 2265              		.weak	HAL_TIM_TriggerHalfCpltCallback
 2266              		.thumb
 2267              		.thumb_func
 2269              	HAL_TIM_TriggerHalfCpltCallback:
 2270              		@ args = 0, pretend = 0, frame = 0
 2271              		@ frame_needed = 0, uses_anonymous_args = 0
 2272              		@ link register save eliminated.
 2273 0000 7047     		bx	lr
 2275              		.section	.text.TIM_DMATriggerHalfCplt,"ax",%progbits
 2276              		.align	1
 2277              		.thumb
 2278              		.thumb_func
 2280              	TIM_DMATriggerHalfCplt:
 2281              		@ args = 0, pretend = 0, frame = 0
 2282              		@ frame_needed = 0, uses_anonymous_args = 0
 2283 0000 08B5     		push	{r3, lr}
 2284 0002 406A     		ldr	r0, [r0, #36]
 2285 0004 0123     		movs	r3, #1
 2286 0006 80F83D30 		strb	r3, [r0, #61]
 2287 000a FFF7FEFF 		bl	HAL_TIM_TriggerHalfCpltCallback
 2288 000e 08BD     		pop	{r3, pc}
 2290              		.section	.text.HAL_TIM_ErrorCallback,"ax",%progbits
ARM GAS  /tmp/ccRVpOvn.s 			page 39


 2291              		.align	1
 2292              		.weak	HAL_TIM_ErrorCallback
 2293              		.thumb
 2294              		.thumb_func
 2296              	HAL_TIM_ErrorCallback:
 2297              		@ args = 0, pretend = 0, frame = 0
 2298              		@ frame_needed = 0, uses_anonymous_args = 0
 2299              		@ link register save eliminated.
 2300 0000 7047     		bx	lr
 2302              		.section	.text.TIM_DMAError,"ax",%progbits
 2303              		.align	1
 2304              		.global	TIM_DMAError
 2305              		.thumb
 2306              		.thumb_func
 2308              	TIM_DMAError:
 2309              		@ args = 0, pretend = 0, frame = 0
 2310              		@ frame_needed = 0, uses_anonymous_args = 0
 2311 0000 08B5     		push	{r3, lr}
 2312 0002 406A     		ldr	r0, [r0, #36]
 2313 0004 0123     		movs	r3, #1
 2314 0006 80F83D30 		strb	r3, [r0, #61]
 2315 000a FFF7FEFF 		bl	HAL_TIM_ErrorCallback
 2316 000e 08BD     		pop	{r3, pc}
 2318              		.section	.text.HAL_TIM_Base_GetState,"ax",%progbits
 2319              		.align	1
 2320              		.global	HAL_TIM_Base_GetState
 2321              		.thumb
 2322              		.thumb_func
 2324              	HAL_TIM_Base_GetState:
 2325              		@ args = 0, pretend = 0, frame = 0
 2326              		@ frame_needed = 0, uses_anonymous_args = 0
 2327              		@ link register save eliminated.
 2328 0000 90F83D00 		ldrb	r0, [r0, #61]	@ zero_extendqisi2
 2329 0004 7047     		bx	lr
 2331              		.section	.text.HAL_TIM_OC_GetState,"ax",%progbits
 2332              		.align	1
 2333              		.global	HAL_TIM_OC_GetState
 2334              		.thumb
 2335              		.thumb_func
 2337              	HAL_TIM_OC_GetState:
 2338              		@ args = 0, pretend = 0, frame = 0
 2339              		@ frame_needed = 0, uses_anonymous_args = 0
 2340              		@ link register save eliminated.
 2341 0000 90F83D00 		ldrb	r0, [r0, #61]	@ zero_extendqisi2
 2342 0004 7047     		bx	lr
 2344              		.section	.text.HAL_TIM_PWM_GetState,"ax",%progbits
 2345              		.align	1
 2346              		.global	HAL_TIM_PWM_GetState
 2347              		.thumb
 2348              		.thumb_func
 2350              	HAL_TIM_PWM_GetState:
 2351              		@ args = 0, pretend = 0, frame = 0
 2352              		@ frame_needed = 0, uses_anonymous_args = 0
 2353              		@ link register save eliminated.
 2354 0000 90F83D00 		ldrb	r0, [r0, #61]	@ zero_extendqisi2
 2355 0004 7047     		bx	lr
 2357              		.section	.text.HAL_TIM_IC_GetState,"ax",%progbits
ARM GAS  /tmp/ccRVpOvn.s 			page 40


 2358              		.align	1
 2359              		.global	HAL_TIM_IC_GetState
 2360              		.thumb
 2361              		.thumb_func
 2363              	HAL_TIM_IC_GetState:
 2364              		@ args = 0, pretend = 0, frame = 0
 2365              		@ frame_needed = 0, uses_anonymous_args = 0
 2366              		@ link register save eliminated.
 2367 0000 90F83D00 		ldrb	r0, [r0, #61]	@ zero_extendqisi2
 2368 0004 7047     		bx	lr
 2370              		.section	.text.HAL_TIM_OnePulse_GetState,"ax",%progbits
 2371              		.align	1
 2372              		.global	HAL_TIM_OnePulse_GetState
 2373              		.thumb
 2374              		.thumb_func
 2376              	HAL_TIM_OnePulse_GetState:
 2377              		@ args = 0, pretend = 0, frame = 0
 2378              		@ frame_needed = 0, uses_anonymous_args = 0
 2379              		@ link register save eliminated.
 2380 0000 90F83D00 		ldrb	r0, [r0, #61]	@ zero_extendqisi2
 2381 0004 7047     		bx	lr
 2383              		.section	.text.HAL_TIM_Encoder_GetState,"ax",%progbits
 2384              		.align	1
 2385              		.global	HAL_TIM_Encoder_GetState
 2386              		.thumb
 2387              		.thumb_func
 2389              	HAL_TIM_Encoder_GetState:
 2390              		@ args = 0, pretend = 0, frame = 0
 2391              		@ frame_needed = 0, uses_anonymous_args = 0
 2392              		@ link register save eliminated.
 2393 0000 90F83D00 		ldrb	r0, [r0, #61]	@ zero_extendqisi2
 2394 0004 7047     		bx	lr
 2396              		.section	.text.TIM_Base_SetConfig,"ax",%progbits
 2397              		.align	1
 2398              		.global	TIM_Base_SetConfig
 2399              		.thumb
 2400              		.thumb_func
 2402              	TIM_Base_SetConfig:
 2403              		@ args = 0, pretend = 0, frame = 0
 2404              		@ frame_needed = 0, uses_anonymous_args = 0
 2405              		@ link register save eliminated.
 2406 0000 244A     		ldr	r2, .L380
 2407 0002 0368     		ldr	r3, [r0]
 2408 0004 9042     		cmp	r0, r2
 2409 0006 12D0     		beq	.L369
 2410 0008 02F50062 		add	r2, r2, #2048
 2411 000c 9042     		cmp	r0, r2
 2412 000e 0ED0     		beq	.L369
 2413 0010 B0F1804F 		cmp	r0, #1073741824
 2414 0014 0BD0     		beq	.L369
 2415 0016 A2F59832 		sub	r2, r2, #77824
 2416 001a 9042     		cmp	r0, r2
 2417 001c 07D0     		beq	.L369
 2418 001e 02F58062 		add	r2, r2, #1024
 2419 0022 9042     		cmp	r0, r2
 2420 0024 03D0     		beq	.L369
 2421 0026 02F58062 		add	r2, r2, #1024
ARM GAS  /tmp/ccRVpOvn.s 			page 41


 2422 002a 9042     		cmp	r0, r2
 2423 002c 1DD1     		bne	.L370
 2424              	.L369:
 2425 002e 4A68     		ldr	r2, [r1, #4]
 2426 0030 23F07003 		bic	r3, r3, #112
 2427 0034 1343     		orrs	r3, r3, r2
 2428 0036 174A     		ldr	r2, .L380
 2429 0038 9042     		cmp	r0, r2
 2430 003a 12D0     		beq	.L371
 2431 003c 02F50062 		add	r2, r2, #2048
 2432 0040 9042     		cmp	r0, r2
 2433 0042 0ED0     		beq	.L371
 2434 0044 B0F1804F 		cmp	r0, #1073741824
 2435 0048 0BD0     		beq	.L371
 2436 004a A2F59832 		sub	r2, r2, #77824
 2437 004e 9042     		cmp	r0, r2
 2438 0050 07D0     		beq	.L371
 2439 0052 02F58062 		add	r2, r2, #1024
 2440 0056 9042     		cmp	r0, r2
 2441 0058 03D0     		beq	.L371
 2442 005a 02F58062 		add	r2, r2, #1024
 2443 005e 9042     		cmp	r0, r2
 2444 0060 03D1     		bne	.L370
 2445              	.L371:
 2446 0062 CA68     		ldr	r2, [r1, #12]
 2447 0064 23F44073 		bic	r3, r3, #768
 2448 0068 1343     		orrs	r3, r3, r2
 2449              	.L370:
 2450 006a 4A69     		ldr	r2, [r1, #20]
 2451 006c 23F08003 		bic	r3, r3, #128
 2452 0070 1343     		orrs	r3, r3, r2
 2453 0072 0360     		str	r3, [r0]
 2454 0074 8B68     		ldr	r3, [r1, #8]
 2455 0076 C362     		str	r3, [r0, #44]
 2456 0078 0B68     		ldr	r3, [r1]
 2457 007a 8362     		str	r3, [r0, #40]
 2458 007c 054B     		ldr	r3, .L380
 2459 007e 9842     		cmp	r0, r3
 2460 0080 03D0     		beq	.L372
 2461 0082 03F50063 		add	r3, r3, #2048
 2462 0086 9842     		cmp	r0, r3
 2463 0088 01D1     		bne	.L373
 2464              	.L372:
 2465 008a 0B69     		ldr	r3, [r1, #16]
 2466 008c 0363     		str	r3, [r0, #48]
 2467              	.L373:
 2468 008e 0123     		movs	r3, #1
 2469 0090 4361     		str	r3, [r0, #20]
 2470 0092 7047     		bx	lr
 2471              	.L381:
 2472              		.align	2
 2473              	.L380:
 2474 0094 002C0140 		.word	1073818624
 2476              		.section	.text.HAL_TIM_Base_Init,"ax",%progbits
 2477              		.align	1
 2478              		.global	HAL_TIM_Base_Init
 2479              		.thumb
ARM GAS  /tmp/ccRVpOvn.s 			page 42


 2480              		.thumb_func
 2482              	HAL_TIM_Base_Init:
 2483              		@ args = 0, pretend = 0, frame = 0
 2484              		@ frame_needed = 0, uses_anonymous_args = 0
 2485 0000 10B5     		push	{r4, lr}
 2486 0002 0446     		mov	r4, r0
 2487 0004 A0B1     		cbz	r0, .L385
 2488 0006 90F83D30 		ldrb	r3, [r0, #61]	@ zero_extendqisi2
 2489 000a 03F0FF02 		and	r2, r3, #255
 2490 000e 1BB9     		cbnz	r3, .L384
 2491 0010 80F83C20 		strb	r2, [r0, #60]
 2492 0014 FFF7FEFF 		bl	HAL_TIM_Base_MspInit
 2493              	.L384:
 2494 0018 0223     		movs	r3, #2
 2495 001a 84F83D30 		strb	r3, [r4, #61]
 2496 001e 2068     		ldr	r0, [r4]
 2497 0020 211D     		adds	r1, r4, #4
 2498 0022 FFF7FEFF 		bl	TIM_Base_SetConfig
 2499 0026 0123     		movs	r3, #1
 2500 0028 84F83D30 		strb	r3, [r4, #61]
 2501 002c 0020     		movs	r0, #0
 2502 002e 10BD     		pop	{r4, pc}
 2503              	.L385:
 2504 0030 0120     		movs	r0, #1
 2505 0032 10BD     		pop	{r4, pc}
 2507              		.section	.text.HAL_TIM_OC_Init,"ax",%progbits
 2508              		.align	1
 2509              		.global	HAL_TIM_OC_Init
 2510              		.thumb
 2511              		.thumb_func
 2513              	HAL_TIM_OC_Init:
 2514              		@ args = 0, pretend = 0, frame = 0
 2515              		@ frame_needed = 0, uses_anonymous_args = 0
 2516 0000 10B5     		push	{r4, lr}
 2517 0002 0446     		mov	r4, r0
 2518 0004 A0B1     		cbz	r0, .L389
 2519 0006 90F83D30 		ldrb	r3, [r0, #61]	@ zero_extendqisi2
 2520 000a 03F0FF02 		and	r2, r3, #255
 2521 000e 1BB9     		cbnz	r3, .L388
 2522 0010 80F83C20 		strb	r2, [r0, #60]
 2523 0014 FFF7FEFF 		bl	HAL_TIM_OC_MspInit
 2524              	.L388:
 2525 0018 0223     		movs	r3, #2
 2526 001a 84F83D30 		strb	r3, [r4, #61]
 2527 001e 2068     		ldr	r0, [r4]
 2528 0020 211D     		adds	r1, r4, #4
 2529 0022 FFF7FEFF 		bl	TIM_Base_SetConfig
 2530 0026 0123     		movs	r3, #1
 2531 0028 84F83D30 		strb	r3, [r4, #61]
 2532 002c 0020     		movs	r0, #0
 2533 002e 10BD     		pop	{r4, pc}
 2534              	.L389:
 2535 0030 0120     		movs	r0, #1
 2536 0032 10BD     		pop	{r4, pc}
 2538              		.section	.text.HAL_TIM_PWM_Init,"ax",%progbits
 2539              		.align	1
 2540              		.global	HAL_TIM_PWM_Init
ARM GAS  /tmp/ccRVpOvn.s 			page 43


 2541              		.thumb
 2542              		.thumb_func
 2544              	HAL_TIM_PWM_Init:
 2545              		@ args = 0, pretend = 0, frame = 0
 2546              		@ frame_needed = 0, uses_anonymous_args = 0
 2547 0000 10B5     		push	{r4, lr}
 2548 0002 0446     		mov	r4, r0
 2549 0004 A0B1     		cbz	r0, .L393
 2550 0006 90F83D30 		ldrb	r3, [r0, #61]	@ zero_extendqisi2
 2551 000a 03F0FF02 		and	r2, r3, #255
 2552 000e 1BB9     		cbnz	r3, .L392
 2553 0010 80F83C20 		strb	r2, [r0, #60]
 2554 0014 FFF7FEFF 		bl	HAL_TIM_PWM_MspInit
 2555              	.L392:
 2556 0018 0223     		movs	r3, #2
 2557 001a 84F83D30 		strb	r3, [r4, #61]
 2558 001e 2068     		ldr	r0, [r4]
 2559 0020 211D     		adds	r1, r4, #4
 2560 0022 FFF7FEFF 		bl	TIM_Base_SetConfig
 2561 0026 0123     		movs	r3, #1
 2562 0028 84F83D30 		strb	r3, [r4, #61]
 2563 002c 0020     		movs	r0, #0
 2564 002e 10BD     		pop	{r4, pc}
 2565              	.L393:
 2566 0030 0120     		movs	r0, #1
 2567 0032 10BD     		pop	{r4, pc}
 2569              		.section	.text.HAL_TIM_IC_Init,"ax",%progbits
 2570              		.align	1
 2571              		.global	HAL_TIM_IC_Init
 2572              		.thumb
 2573              		.thumb_func
 2575              	HAL_TIM_IC_Init:
 2576              		@ args = 0, pretend = 0, frame = 0
 2577              		@ frame_needed = 0, uses_anonymous_args = 0
 2578 0000 10B5     		push	{r4, lr}
 2579 0002 0446     		mov	r4, r0
 2580 0004 A0B1     		cbz	r0, .L397
 2581 0006 90F83D30 		ldrb	r3, [r0, #61]	@ zero_extendqisi2
 2582 000a 03F0FF02 		and	r2, r3, #255
 2583 000e 1BB9     		cbnz	r3, .L396
 2584 0010 80F83C20 		strb	r2, [r0, #60]
 2585 0014 FFF7FEFF 		bl	HAL_TIM_IC_MspInit
 2586              	.L396:
 2587 0018 0223     		movs	r3, #2
 2588 001a 84F83D30 		strb	r3, [r4, #61]
 2589 001e 2068     		ldr	r0, [r4]
 2590 0020 211D     		adds	r1, r4, #4
 2591 0022 FFF7FEFF 		bl	TIM_Base_SetConfig
 2592 0026 0123     		movs	r3, #1
 2593 0028 84F83D30 		strb	r3, [r4, #61]
 2594 002c 0020     		movs	r0, #0
 2595 002e 10BD     		pop	{r4, pc}
 2596              	.L397:
 2597 0030 0120     		movs	r0, #1
 2598 0032 10BD     		pop	{r4, pc}
 2600              		.section	.text.HAL_TIM_OnePulse_Init,"ax",%progbits
 2601              		.align	1
ARM GAS  /tmp/ccRVpOvn.s 			page 44


 2602              		.global	HAL_TIM_OnePulse_Init
 2603              		.thumb
 2604              		.thumb_func
 2606              	HAL_TIM_OnePulse_Init:
 2607              		@ args = 0, pretend = 0, frame = 0
 2608              		@ frame_needed = 0, uses_anonymous_args = 0
 2609 0000 38B5     		push	{r3, r4, r5, lr}
 2610 0002 0D46     		mov	r5, r1
 2611 0004 0446     		mov	r4, r0
 2612 0006 E0B1     		cbz	r0, .L401
 2613 0008 90F83D30 		ldrb	r3, [r0, #61]	@ zero_extendqisi2
 2614 000c 03F0FF02 		and	r2, r3, #255
 2615 0010 1BB9     		cbnz	r3, .L400
 2616 0012 80F83C20 		strb	r2, [r0, #60]
 2617 0016 FFF7FEFF 		bl	HAL_TIM_OnePulse_MspInit
 2618              	.L400:
 2619 001a 0223     		movs	r3, #2
 2620 001c 84F83D30 		strb	r3, [r4, #61]
 2621 0020 2068     		ldr	r0, [r4]
 2622 0022 211D     		adds	r1, r4, #4
 2623 0024 FFF7FEFF 		bl	TIM_Base_SetConfig
 2624 0028 2368     		ldr	r3, [r4]
 2625 002a 0020     		movs	r0, #0
 2626 002c 1A68     		ldr	r2, [r3]
 2627 002e 22F00802 		bic	r2, r2, #8
 2628 0032 1A60     		str	r2, [r3]
 2629 0034 1968     		ldr	r1, [r3]
 2630 0036 2943     		orrs	r1, r1, r5
 2631 0038 1960     		str	r1, [r3]
 2632 003a 0123     		movs	r3, #1
 2633 003c 84F83D30 		strb	r3, [r4, #61]
 2634 0040 38BD     		pop	{r3, r4, r5, pc}
 2635              	.L401:
 2636 0042 0120     		movs	r0, #1
 2637 0044 38BD     		pop	{r3, r4, r5, pc}
 2639              		.section	.text.HAL_TIM_Encoder_Init,"ax",%progbits
 2640              		.align	1
 2641              		.global	HAL_TIM_Encoder_Init
 2642              		.thumb
 2643              		.thumb_func
 2645              	HAL_TIM_Encoder_Init:
 2646              		@ args = 0, pretend = 0, frame = 0
 2647              		@ frame_needed = 0, uses_anonymous_args = 0
 2648 0000 F8B5     		push	{r3, r4, r5, r6, r7, lr}
 2649 0002 0C46     		mov	r4, r1
 2650 0004 0546     		mov	r5, r0
 2651 0006 0028     		cmp	r0, #0
 2652 0008 43D0     		beq	.L405
 2653 000a 90F83D30 		ldrb	r3, [r0, #61]	@ zero_extendqisi2
 2654 000e 03F0FF02 		and	r2, r3, #255
 2655 0012 1BB9     		cbnz	r3, .L404
 2656 0014 80F83C20 		strb	r2, [r0, #60]
 2657 0018 FFF7FEFF 		bl	HAL_TIM_Encoder_MspInit
 2658              	.L404:
 2659 001c 2946     		mov	r1, r5
 2660 001e 0223     		movs	r3, #2
 2661 0020 51F8040B 		ldr	r0, [r1], #4
ARM GAS  /tmp/ccRVpOvn.s 			page 45


 2662 0024 85F83D30 		strb	r3, [r5, #61]
 2663 0028 8368     		ldr	r3, [r0, #8]
 2664 002a 23F48043 		bic	r3, r3, #16384
 2665 002e 23F00703 		bic	r3, r3, #7
 2666 0032 8360     		str	r3, [r0, #8]
 2667 0034 FFF7FEFF 		bl	TIM_Base_SetConfig
 2668 0038 2968     		ldr	r1, [r5]
 2669 003a 2268     		ldr	r2, [r4]
 2670 003c 8E68     		ldr	r6, [r1, #8]
 2671 003e 8B69     		ldr	r3, [r1, #24]
 2672 0040 1643     		orrs	r6, r6, r2
 2673 0042 23F44073 		bic	r3, r3, #768
 2674 0046 A269     		ldr	r2, [r4, #24]
 2675 0048 23F00303 		bic	r3, r3, #3
 2676 004c 43EA0222 		orr	r2, r3, r2, lsl #8
 2677 0050 A368     		ldr	r3, [r4, #8]
 2678 0052 2769     		ldr	r7, [r4, #16]
 2679 0054 1343     		orrs	r3, r3, r2
 2680 0056 E269     		ldr	r2, [r4, #28]
 2681 0058 3F01     		lsls	r7, r7, #4
 2682 005a 47EA0227 		orr	r7, r7, r2, lsl #8
 2683 005e E268     		ldr	r2, [r4, #12]
 2684 0060 086A     		ldr	r0, [r1, #32]
 2685 0062 3A43     		orrs	r2, r2, r7
 2686 0064 276A     		ldr	r7, [r4, #32]
 2687 0066 23F47C43 		bic	r3, r3, #64512
 2688 006a 42EA0732 		orr	r2, r2, r7, lsl #12
 2689 006e 23F0FC03 		bic	r3, r3, #252
 2690 0072 1343     		orrs	r3, r3, r2
 2691 0074 20F02202 		bic	r2, r0, #34
 2692 0078 6069     		ldr	r0, [r4, #20]
 2693 007a 42EA0012 		orr	r2, r2, r0, lsl #4
 2694 007e 6068     		ldr	r0, [r4, #4]
 2695 0080 8E60     		str	r6, [r1, #8]
 2696 0082 0243     		orrs	r2, r2, r0
 2697 0084 8B61     		str	r3, [r1, #24]
 2698 0086 0123     		movs	r3, #1
 2699 0088 0A62     		str	r2, [r1, #32]
 2700 008a 0020     		movs	r0, #0
 2701 008c 85F83D30 		strb	r3, [r5, #61]
 2702 0090 F8BD     		pop	{r3, r4, r5, r6, r7, pc}
 2703              	.L405:
 2704 0092 0120     		movs	r0, #1
 2705 0094 F8BD     		pop	{r3, r4, r5, r6, r7, pc}
 2707              		.section	.text.TIM_OC2_SetConfig,"ax",%progbits
 2708              		.align	1
 2709              		.global	TIM_OC2_SetConfig
 2710              		.thumb
 2711              		.thumb_func
 2713              	TIM_OC2_SetConfig:
 2714              		@ args = 0, pretend = 0, frame = 0
 2715              		@ frame_needed = 0, uses_anonymous_args = 0
 2716 0000 036A     		ldr	r3, [r0, #32]
 2717 0002 30B5     		push	{r4, r5, lr}
 2718 0004 23F01003 		bic	r3, r3, #16
 2719 0008 0362     		str	r3, [r0, #32]
 2720 000a 036A     		ldr	r3, [r0, #32]
ARM GAS  /tmp/ccRVpOvn.s 			page 46


 2721 000c 4268     		ldr	r2, [r0, #4]
 2722 000e 8469     		ldr	r4, [r0, #24]
 2723 0010 0D68     		ldr	r5, [r1]
 2724 0012 24F4E644 		bic	r4, r4, #29440
 2725 0016 44EA0524 		orr	r4, r4, r5, lsl #8
 2726 001a 8D68     		ldr	r5, [r1, #8]
 2727 001c 23F02003 		bic	r3, r3, #32
 2728 0020 43EA0513 		orr	r3, r3, r5, lsl #4
 2729 0024 114D     		ldr	r5, .L410
 2730 0026 A842     		cmp	r0, r5
 2731 0028 03D0     		beq	.L407
 2732 002a 05F50065 		add	r5, r5, #2048
 2733 002e A842     		cmp	r0, r5
 2734 0030 15D1     		bne	.L408
 2735              	.L407:
 2736 0032 CD68     		ldr	r5, [r1, #12]
 2737 0034 23F08003 		bic	r3, r3, #128
 2738 0038 43EA0513 		orr	r3, r3, r5, lsl #4
 2739 003c 0B4D     		ldr	r5, .L410
 2740 003e 23F04003 		bic	r3, r3, #64
 2741 0042 A842     		cmp	r0, r5
 2742 0044 03D0     		beq	.L409
 2743 0046 05F50065 		add	r5, r5, #2048
 2744 004a A842     		cmp	r0, r5
 2745 004c 07D1     		bne	.L408
 2746              	.L409:
 2747 004e 4D69     		ldr	r5, [r1, #20]
 2748 0050 22F44062 		bic	r2, r2, #3072
 2749 0054 42EA8502 		orr	r2, r2, r5, lsl #2
 2750 0058 8D69     		ldr	r5, [r1, #24]
 2751 005a 42EA8502 		orr	r2, r2, r5, lsl #2
 2752              	.L408:
 2753 005e 4260     		str	r2, [r0, #4]
 2754 0060 4A68     		ldr	r2, [r1, #4]
 2755 0062 8461     		str	r4, [r0, #24]
 2756 0064 8263     		str	r2, [r0, #56]
 2757 0066 0362     		str	r3, [r0, #32]
 2758 0068 30BD     		pop	{r4, r5, pc}
 2759              	.L411:
 2760 006a 00BF     		.align	2
 2761              	.L410:
 2762 006c 002C0140 		.word	1073818624
 2764              		.section	.text.HAL_TIM_OC_ConfigChannel,"ax",%progbits
 2765              		.align	1
 2766              		.global	HAL_TIM_OC_ConfigChannel
 2767              		.thumb
 2768              		.thumb_func
 2770              	HAL_TIM_OC_ConfigChannel:
 2771              		@ args = 0, pretend = 0, frame = 0
 2772              		@ frame_needed = 0, uses_anonymous_args = 0
 2773 0000 38B5     		push	{r3, r4, r5, lr}
 2774 0002 90F83C30 		ldrb	r3, [r0, #60]	@ zero_extendqisi2
 2775 0006 0446     		mov	r4, r0
 2776 0008 012B     		cmp	r3, #1
 2777 000a 4FF00200 		mov	r0, #2
 2778 000e 24D0     		beq	.L413
 2779 0010 0123     		movs	r3, #1
ARM GAS  /tmp/ccRVpOvn.s 			page 47


 2780 0012 84F83C30 		strb	r3, [r4, #60]
 2781 0016 84F83D00 		strb	r0, [r4, #61]
 2782 001a 1D46     		mov	r5, r3
 2783 001c 0C2A     		cmp	r2, #12
 2784 001e 17D8     		bhi	.L414
 2785 0020 DFE802F0 		tbb	[pc, r2]
 2786              	.L416:
 2787 0024 07       		.byte	(.L415-.L416)/2
 2788 0025 16       		.byte	(.L414-.L416)/2
 2789 0026 16       		.byte	(.L414-.L416)/2
 2790 0027 16       		.byte	(.L414-.L416)/2
 2791 0028 0B       		.byte	(.L417-.L416)/2
 2792 0029 16       		.byte	(.L414-.L416)/2
 2793 002a 16       		.byte	(.L414-.L416)/2
 2794 002b 16       		.byte	(.L414-.L416)/2
 2795 002c 0F       		.byte	(.L418-.L416)/2
 2796 002d 16       		.byte	(.L414-.L416)/2
 2797 002e 16       		.byte	(.L414-.L416)/2
 2798 002f 16       		.byte	(.L414-.L416)/2
 2799 0030 13       		.byte	(.L419-.L416)/2
 2800 0031 00       		.p2align 1
 2801              	.L415:
 2802 0032 2068     		ldr	r0, [r4]
 2803 0034 FFF7FEFF 		bl	TIM_OC1_SetConfig
 2804 0038 0AE0     		b	.L414
 2805              	.L417:
 2806 003a 2068     		ldr	r0, [r4]
 2807 003c FFF7FEFF 		bl	TIM_OC2_SetConfig
 2808 0040 06E0     		b	.L414
 2809              	.L418:
 2810 0042 2068     		ldr	r0, [r4]
 2811 0044 FFF7FEFF 		bl	TIM_OC3_SetConfig
 2812 0048 02E0     		b	.L414
 2813              	.L419:
 2814 004a 2068     		ldr	r0, [r4]
 2815 004c FFF7FEFF 		bl	TIM_OC4_SetConfig
 2816              	.L414:
 2817 0050 0020     		movs	r0, #0
 2818 0052 84F83D50 		strb	r5, [r4, #61]
 2819 0056 84F83C00 		strb	r0, [r4, #60]
 2820              	.L413:
 2821 005a 38BD     		pop	{r3, r4, r5, pc}
 2823              		.section	.text.HAL_TIM_PWM_ConfigChannel,"ax",%progbits
 2824              		.align	1
 2825              		.global	HAL_TIM_PWM_ConfigChannel
 2826              		.thumb
 2827              		.thumb_func
 2829              	HAL_TIM_PWM_ConfigChannel:
 2830              		@ args = 0, pretend = 0, frame = 0
 2831              		@ frame_needed = 0, uses_anonymous_args = 0
 2832 0000 38B5     		push	{r3, r4, r5, lr}
 2833 0002 90F83C30 		ldrb	r3, [r0, #60]	@ zero_extendqisi2
 2834 0006 0446     		mov	r4, r0
 2835 0008 012B     		cmp	r3, #1
 2836 000a 0D46     		mov	r5, r1
 2837 000c 4FF00200 		mov	r0, #2
 2838 0010 58D0     		beq	.L422
ARM GAS  /tmp/ccRVpOvn.s 			page 48


 2839 0012 0123     		movs	r3, #1
 2840 0014 84F83C30 		strb	r3, [r4, #60]
 2841 0018 84F83D00 		strb	r0, [r4, #61]
 2842 001c 0C2A     		cmp	r2, #12
 2843 001e 4BD8     		bhi	.L423
 2844 0020 DFE802F0 		tbb	[pc, r2]
 2845              	.L425:
 2846 0024 07       		.byte	(.L424-.L425)/2
 2847 0025 4A       		.byte	(.L423-.L425)/2
 2848 0026 4A       		.byte	(.L423-.L425)/2
 2849 0027 4A       		.byte	(.L423-.L425)/2
 2850 0028 17       		.byte	(.L426-.L425)/2
 2851 0029 4A       		.byte	(.L423-.L425)/2
 2852 002a 4A       		.byte	(.L423-.L425)/2
 2853 002b 4A       		.byte	(.L423-.L425)/2
 2854 002c 29       		.byte	(.L427-.L425)/2
 2855 002d 4A       		.byte	(.L423-.L425)/2
 2856 002e 4A       		.byte	(.L423-.L425)/2
 2857 002f 4A       		.byte	(.L423-.L425)/2
 2858 0030 39       		.byte	(.L428-.L425)/2
 2859 0031 00       		.p2align 1
 2860              	.L424:
 2861 0032 2068     		ldr	r0, [r4]
 2862 0034 FFF7FEFF 		bl	TIM_OC1_SetConfig
 2863 0038 2368     		ldr	r3, [r4]
 2864 003a 9A69     		ldr	r2, [r3, #24]
 2865 003c 42F00802 		orr	r2, r2, #8
 2866 0040 9A61     		str	r2, [r3, #24]
 2867 0042 9A69     		ldr	r2, [r3, #24]
 2868 0044 22F00402 		bic	r2, r2, #4
 2869 0048 9A61     		str	r2, [r3, #24]
 2870 004a 9969     		ldr	r1, [r3, #24]
 2871 004c 2A69     		ldr	r2, [r5, #16]
 2872 004e 0A43     		orrs	r2, r2, r1
 2873 0050 0FE0     		b	.L430
 2874              	.L426:
 2875 0052 2068     		ldr	r0, [r4]
 2876 0054 FFF7FEFF 		bl	TIM_OC2_SetConfig
 2877 0058 2368     		ldr	r3, [r4]
 2878 005a 2969     		ldr	r1, [r5, #16]
 2879 005c 9A69     		ldr	r2, [r3, #24]
 2880 005e 42F40062 		orr	r2, r2, #2048
 2881 0062 9A61     		str	r2, [r3, #24]
 2882 0064 9A69     		ldr	r2, [r3, #24]
 2883 0066 22F48062 		bic	r2, r2, #1024
 2884 006a 9A61     		str	r2, [r3, #24]
 2885 006c 9A69     		ldr	r2, [r3, #24]
 2886 006e 42EA0122 		orr	r2, r2, r1, lsl #8
 2887              	.L430:
 2888 0072 9A61     		str	r2, [r3, #24]
 2889 0074 20E0     		b	.L423
 2890              	.L427:
 2891 0076 2068     		ldr	r0, [r4]
 2892 0078 FFF7FEFF 		bl	TIM_OC3_SetConfig
 2893 007c 2368     		ldr	r3, [r4]
 2894 007e DA69     		ldr	r2, [r3, #28]
 2895 0080 42F00802 		orr	r2, r2, #8
ARM GAS  /tmp/ccRVpOvn.s 			page 49


 2896 0084 DA61     		str	r2, [r3, #28]
 2897 0086 DA69     		ldr	r2, [r3, #28]
 2898 0088 22F00402 		bic	r2, r2, #4
 2899 008c DA61     		str	r2, [r3, #28]
 2900 008e D969     		ldr	r1, [r3, #28]
 2901 0090 2A69     		ldr	r2, [r5, #16]
 2902 0092 0A43     		orrs	r2, r2, r1
 2903 0094 0FE0     		b	.L431
 2904              	.L428:
 2905 0096 2068     		ldr	r0, [r4]
 2906 0098 FFF7FEFF 		bl	TIM_OC4_SetConfig
 2907 009c 2368     		ldr	r3, [r4]
 2908 009e 2969     		ldr	r1, [r5, #16]
 2909 00a0 DA69     		ldr	r2, [r3, #28]
 2910 00a2 42F40062 		orr	r2, r2, #2048
 2911 00a6 DA61     		str	r2, [r3, #28]
 2912 00a8 DA69     		ldr	r2, [r3, #28]
 2913 00aa 22F48062 		bic	r2, r2, #1024
 2914 00ae DA61     		str	r2, [r3, #28]
 2915 00b0 DA69     		ldr	r2, [r3, #28]
 2916 00b2 42EA0122 		orr	r2, r2, r1, lsl #8
 2917              	.L431:
 2918 00b6 DA61     		str	r2, [r3, #28]
 2919              	.L423:
 2920 00b8 0123     		movs	r3, #1
 2921 00ba 0020     		movs	r0, #0
 2922 00bc 84F83D30 		strb	r3, [r4, #61]
 2923 00c0 84F83C00 		strb	r0, [r4, #60]
 2924              	.L422:
 2925 00c4 38BD     		pop	{r3, r4, r5, pc}
 2927              		.section	.text.TIM_TI1_SetConfig,"ax",%progbits
 2928              		.align	1
 2929              		.global	TIM_TI1_SetConfig
 2930              		.thumb
 2931              		.thumb_func
 2933              	TIM_TI1_SetConfig:
 2934              		@ args = 0, pretend = 0, frame = 0
 2935              		@ frame_needed = 0, uses_anonymous_args = 0
 2936 0000 70B5     		push	{r4, r5, r6, lr}
 2937 0002 046A     		ldr	r4, [r0, #32]
 2938 0004 164E     		ldr	r6, .L441
 2939 0006 24F00104 		bic	r4, r4, #1
 2940 000a 0462     		str	r4, [r0, #32]
 2941 000c B042     		cmp	r0, r6
 2942 000e 8469     		ldr	r4, [r0, #24]
 2943 0010 056A     		ldr	r5, [r0, #32]
 2944 0012 12D0     		beq	.L433
 2945 0014 06F50066 		add	r6, r6, #2048
 2946 0018 B042     		cmp	r0, r6
 2947 001a 0ED0     		beq	.L433
 2948 001c B0F1804F 		cmp	r0, #1073741824
 2949 0020 0BD0     		beq	.L433
 2950 0022 A6F59836 		sub	r6, r6, #77824
 2951 0026 B042     		cmp	r0, r6
 2952 0028 07D0     		beq	.L433
 2953 002a 06F58066 		add	r6, r6, #1024
 2954 002e B042     		cmp	r0, r6
ARM GAS  /tmp/ccRVpOvn.s 			page 50


 2955 0030 03D0     		beq	.L433
 2956 0032 06F58066 		add	r6, r6, #1024
 2957 0036 B042     		cmp	r0, r6
 2958 0038 0FD1     		bne	.L439
 2959              	.L433:
 2960 003a 24F00304 		bic	r4, r4, #3
 2961 003e 2243     		orrs	r2, r2, r4
 2962              	.L435:
 2963 0040 1B01     		lsls	r3, r3, #4
 2964 0042 22F0F002 		bic	r2, r2, #240
 2965 0046 DBB2     		uxtb	r3, r3
 2966 0048 25F00A05 		bic	r5, r5, #10
 2967 004c 01F00A01 		and	r1, r1, #10
 2968 0050 1A43     		orrs	r2, r2, r3
 2969 0052 0D43     		orrs	r5, r5, r1
 2970 0054 8261     		str	r2, [r0, #24]
 2971 0056 0562     		str	r5, [r0, #32]
 2972 0058 70BD     		pop	{r4, r5, r6, pc}
 2973              	.L439:
 2974 005a 44F00102 		orr	r2, r4, #1
 2975 005e EFE7     		b	.L435
 2976              	.L442:
 2977              		.align	2
 2978              	.L441:
 2979 0060 002C0140 		.word	1073818624
 2981              		.section	.text.HAL_TIM_IC_ConfigChannel,"ax",%progbits
 2982              		.align	1
 2983              		.global	HAL_TIM_IC_ConfigChannel
 2984              		.thumb
 2985              		.thumb_func
 2987              	HAL_TIM_IC_ConfigChannel:
 2988              		@ args = 0, pretend = 0, frame = 0
 2989              		@ frame_needed = 0, uses_anonymous_args = 0
 2990 0000 F8B5     		push	{r3, r4, r5, r6, r7, lr}
 2991 0002 90F83C30 		ldrb	r3, [r0, #60]	@ zero_extendqisi2
 2992 0006 0446     		mov	r4, r0
 2993 0008 012B     		cmp	r3, #1
 2994 000a 0D46     		mov	r5, r1
 2995 000c 4FF00200 		mov	r0, #2
 2996 0010 7FD0     		beq	.L444
 2997 0012 0123     		movs	r3, #1
 2998 0014 84F83C30 		strb	r3, [r4, #60]
 2999 0018 84F83D00 		strb	r0, [r4, #61]
 3000 001c 72B9     		cbnz	r2, .L445
 3001 001e 06C9     		ldmia	r1, {r1, r2}
 3002 0020 EB68     		ldr	r3, [r5, #12]
 3003 0022 2068     		ldr	r0, [r4]
 3004 0024 FFF7FEFF 		bl	TIM_TI1_SetConfig
 3005 0028 2368     		ldr	r3, [r4]
 3006 002a 9A69     		ldr	r2, [r3, #24]
 3007 002c 22F00C02 		bic	r2, r2, #12
 3008 0030 9A61     		str	r2, [r3, #24]
 3009 0032 9969     		ldr	r1, [r3, #24]
 3010 0034 AA68     		ldr	r2, [r5, #8]
 3011 0036 0A43     		orrs	r2, r2, r1
 3012 0038 9A61     		str	r2, [r3, #24]
 3013 003a 64E0     		b	.L446
ARM GAS  /tmp/ccRVpOvn.s 			page 51


 3014              	.L445:
 3015 003c 042A     		cmp	r2, #4
 3016 003e 8E68     		ldr	r6, [r1, #8]
 3017 0040 91E80140 		ldmia	r1, {r0, lr}
 3018 0044 2368     		ldr	r3, [r4]
 3019 0046 C968     		ldr	r1, [r1, #12]
 3020 0048 1FD1     		bne	.L447
 3021 004a 1A6A     		ldr	r2, [r3, #32]
 3022 004c 0903     		lsls	r1, r1, #12
 3023 004e 22F01002 		bic	r2, r2, #16
 3024 0052 1A62     		str	r2, [r3, #32]
 3025 0054 9D69     		ldr	r5, [r3, #24]
 3026 0056 1F6A     		ldr	r7, [r3, #32]
 3027 0058 25F44075 		bic	r5, r5, #768
 3028 005c 45EA0E22 		orr	r2, r5, lr, lsl #8
 3029 0060 0001     		lsls	r0, r0, #4
 3030 0062 22F47042 		bic	r2, r2, #61440
 3031 0066 89B2     		uxth	r1, r1
 3032 0068 27F0A005 		bic	r5, r7, #160
 3033 006c 00F0A000 		and	r0, r0, #160
 3034 0070 0A43     		orrs	r2, r2, r1
 3035 0072 2843     		orrs	r0, r0, r5
 3036 0074 9A61     		str	r2, [r3, #24]
 3037 0076 1862     		str	r0, [r3, #32]
 3038 0078 9A69     		ldr	r2, [r3, #24]
 3039 007a 22F44062 		bic	r2, r2, #3072
 3040 007e 9A61     		str	r2, [r3, #24]
 3041 0080 9A69     		ldr	r2, [r3, #24]
 3042 0082 42EA0626 		orr	r6, r2, r6, lsl #8
 3043 0086 9E61     		str	r6, [r3, #24]
 3044 0088 3DE0     		b	.L446
 3045              	.L447:
 3046 008a 082A     		cmp	r2, #8
 3047 008c 1A6A     		ldr	r2, [r3, #32]
 3048 008e 1CD1     		bne	.L448
 3049 0090 22F48072 		bic	r2, r2, #256
 3050 0094 1A62     		str	r2, [r3, #32]
 3051 0096 DD69     		ldr	r5, [r3, #28]
 3052 0098 1F6A     		ldr	r7, [r3, #32]
 3053 009a 25F00305 		bic	r5, r5, #3
 3054 009e 45EA0E02 		orr	r2, r5, lr
 3055 00a2 0901     		lsls	r1, r1, #4
 3056 00a4 0002     		lsls	r0, r0, #8
 3057 00a6 22F0F002 		bic	r2, r2, #240
 3058 00aa C9B2     		uxtb	r1, r1
 3059 00ac 27F40075 		bic	r5, r7, #512
 3060 00b0 00F40070 		and	r0, r0, #512
 3061 00b4 0A43     		orrs	r2, r2, r1
 3062 00b6 2843     		orrs	r0, r0, r5
 3063 00b8 DA61     		str	r2, [r3, #28]
 3064 00ba 1862     		str	r0, [r3, #32]
 3065 00bc DA69     		ldr	r2, [r3, #28]
 3066 00be 22F00C02 		bic	r2, r2, #12
 3067 00c2 DA61     		str	r2, [r3, #28]
 3068 00c4 DA69     		ldr	r2, [r3, #28]
 3069 00c6 1643     		orrs	r6, r6, r2
 3070 00c8 1CE0     		b	.L450
ARM GAS  /tmp/ccRVpOvn.s 			page 52


 3071              	.L448:
 3072 00ca 22F48052 		bic	r2, r2, #4096
 3073 00ce 1A62     		str	r2, [r3, #32]
 3074 00d0 DD69     		ldr	r5, [r3, #28]
 3075 00d2 0903     		lsls	r1, r1, #12
 3076 00d4 25F44075 		bic	r5, r5, #768
 3077 00d8 1F6A     		ldr	r7, [r3, #32]
 3078 00da 45EA0E22 		orr	r2, r5, lr, lsl #8
 3079 00de 22F47042 		bic	r2, r2, #61440
 3080 00e2 89B2     		uxth	r1, r1
 3081 00e4 0003     		lsls	r0, r0, #12
 3082 00e6 1143     		orrs	r1, r1, r2
 3083 00e8 00F40050 		and	r0, r0, #8192
 3084 00ec 27F40052 		bic	r2, r7, #8192
 3085 00f0 1043     		orrs	r0, r0, r2
 3086 00f2 D961     		str	r1, [r3, #28]
 3087 00f4 1862     		str	r0, [r3, #32]
 3088 00f6 DA69     		ldr	r2, [r3, #28]
 3089 00f8 22F44062 		bic	r2, r2, #3072
 3090 00fc DA61     		str	r2, [r3, #28]
 3091 00fe DA69     		ldr	r2, [r3, #28]
 3092 0100 42EA0626 		orr	r6, r2, r6, lsl #8
 3093              	.L450:
 3094 0104 DE61     		str	r6, [r3, #28]
 3095              	.L446:
 3096 0106 0123     		movs	r3, #1
 3097 0108 0020     		movs	r0, #0
 3098 010a 84F83D30 		strb	r3, [r4, #61]
 3099 010e 84F83C00 		strb	r0, [r4, #60]
 3100              	.L444:
 3101 0112 F8BD     		pop	{r3, r4, r5, r6, r7, pc}
 3103              		.section	.text.HAL_TIM_OnePulse_ConfigChannel,"ax",%progbits
 3104              		.align	1
 3105              		.global	HAL_TIM_OnePulse_ConfigChannel
 3106              		.thumb
 3107              		.thumb_func
 3109              	HAL_TIM_OnePulse_ConfigChannel:
 3110              		@ args = 0, pretend = 0, frame = 32
 3111              		@ frame_needed = 0, uses_anonymous_args = 0
 3112 0000 F0B5     		push	{r4, r5, r6, r7, lr}
 3113 0002 9A42     		cmp	r2, r3
 3114 0004 89B0     		sub	sp, sp, #36
 3115 0006 0546     		mov	r5, r0
 3116 0008 0C46     		mov	r4, r1
 3117 000a 1E46     		mov	r6, r3
 3118 000c 6DD0     		beq	.L459
 3119 000e 90F83C30 		ldrb	r3, [r0, #60]	@ zero_extendqisi2
 3120 0012 0220     		movs	r0, #2
 3121 0014 012B     		cmp	r3, #1
 3122 0016 69D0     		beq	.L452
 3123 0018 0123     		movs	r3, #1
 3124 001a 85F83C30 		strb	r3, [r5, #60]
 3125 001e 0B68     		ldr	r3, [r1]
 3126 0020 85F83D00 		strb	r0, [r5, #61]
 3127 0024 0193     		str	r3, [sp, #4]
 3128 0026 4B68     		ldr	r3, [r1, #4]
 3129 0028 0293     		str	r3, [sp, #8]
ARM GAS  /tmp/ccRVpOvn.s 			page 53


 3130 002a 8B68     		ldr	r3, [r1, #8]
 3131 002c 0393     		str	r3, [sp, #12]
 3132 002e CB68     		ldr	r3, [r1, #12]
 3133 0030 0493     		str	r3, [sp, #16]
 3134 0032 0B69     		ldr	r3, [r1, #16]
 3135 0034 0693     		str	r3, [sp, #24]
 3136 0036 4B69     		ldr	r3, [r1, #20]
 3137 0038 0793     		str	r3, [sp, #28]
 3138 003a 32B1     		cbz	r2, .L454
 3139 003c 042A     		cmp	r2, #4
 3140 003e 08D1     		bne	.L453
 3141 0040 2868     		ldr	r0, [r5]
 3142 0042 01A9     		add	r1, sp, #4
 3143 0044 FFF7FEFF 		bl	TIM_OC2_SetConfig
 3144 0048 03E0     		b	.L453
 3145              	.L454:
 3146 004a 2868     		ldr	r0, [r5]
 3147 004c 01A9     		add	r1, sp, #4
 3148 004e FFF7FEFF 		bl	TIM_OC1_SetConfig
 3149              	.L453:
 3150 0052 46B3     		cbz	r6, .L457
 3151 0054 042E     		cmp	r6, #4
 3152 0056 41D1     		bne	.L456
 3153 0058 2B68     		ldr	r3, [r5]
 3154 005a A669     		ldr	r6, [r4, #24]
 3155 005c 186A     		ldr	r0, [r3, #32]
 3156 005e E769     		ldr	r7, [r4, #28]
 3157 0060 20F01000 		bic	r0, r0, #16
 3158 0064 226A     		ldr	r2, [r4, #32]
 3159 0066 1862     		str	r0, [r3, #32]
 3160 0068 9969     		ldr	r1, [r3, #24]
 3161 006a 1203     		lsls	r2, r2, #12
 3162 006c 21F44071 		bic	r1, r1, #768
 3163 0070 41EA0721 		orr	r1, r1, r7, lsl #8
 3164 0074 186A     		ldr	r0, [r3, #32]
 3165 0076 21F47041 		bic	r1, r1, #61440
 3166 007a 92B2     		uxth	r2, r2
 3167 007c 0A43     		orrs	r2, r2, r1
 3168 007e 3101     		lsls	r1, r6, #4
 3169 0080 20F0A000 		bic	r0, r0, #160
 3170 0084 01F0A001 		and	r1, r1, #160
 3171 0088 0143     		orrs	r1, r1, r0
 3172 008a 9A61     		str	r2, [r3, #24]
 3173 008c 1962     		str	r1, [r3, #32]
 3174 008e 9A69     		ldr	r2, [r3, #24]
 3175 0090 22F44062 		bic	r2, r2, #3072
 3176 0094 9A61     		str	r2, [r3, #24]
 3177 0096 9A68     		ldr	r2, [r3, #8]
 3178 0098 22F07002 		bic	r2, r2, #112
 3179 009c 9A60     		str	r2, [r3, #8]
 3180 009e 9A68     		ldr	r2, [r3, #8]
 3181 00a0 42F06002 		orr	r2, r2, #96
 3182 00a4 11E0     		b	.L461
 3183              	.L457:
 3184 00a6 04F11801 		add	r1, r4, #24
 3185 00aa 0EC9     		ldmia	r1, {r1, r2, r3}
 3186 00ac 2868     		ldr	r0, [r5]
ARM GAS  /tmp/ccRVpOvn.s 			page 54


 3187 00ae FFF7FEFF 		bl	TIM_TI1_SetConfig
 3188 00b2 2B68     		ldr	r3, [r5]
 3189 00b4 9A69     		ldr	r2, [r3, #24]
 3190 00b6 22F00C02 		bic	r2, r2, #12
 3191 00ba 9A61     		str	r2, [r3, #24]
 3192 00bc 9A68     		ldr	r2, [r3, #8]
 3193 00be 22F07002 		bic	r2, r2, #112
 3194 00c2 9A60     		str	r2, [r3, #8]
 3195 00c4 9A68     		ldr	r2, [r3, #8]
 3196 00c6 42F05002 		orr	r2, r2, #80
 3197              	.L461:
 3198 00ca 9A60     		str	r2, [r3, #8]
 3199 00cc 9A68     		ldr	r2, [r3, #8]
 3200 00ce 22F00702 		bic	r2, r2, #7
 3201 00d2 9A60     		str	r2, [r3, #8]
 3202 00d4 9A68     		ldr	r2, [r3, #8]
 3203 00d6 42F00602 		orr	r2, r2, #6
 3204 00da 9A60     		str	r2, [r3, #8]
 3205              	.L456:
 3206 00dc 0123     		movs	r3, #1
 3207 00de 0020     		movs	r0, #0
 3208 00e0 85F83D30 		strb	r3, [r5, #61]
 3209 00e4 85F83C00 		strb	r0, [r5, #60]
 3210 00e8 00E0     		b	.L452
 3211              	.L459:
 3212 00ea 0120     		movs	r0, #1
 3213              	.L452:
 3214 00ec 09B0     		add	sp, sp, #36
 3215              		@ sp needed
 3216 00ee F0BD     		pop	{r4, r5, r6, r7, pc}
 3218              		.section	.text.TIM_ETR_SetConfig,"ax",%progbits
 3219              		.align	1
 3220              		.global	TIM_ETR_SetConfig
 3221              		.thumb
 3222              		.thumb_func
 3224              	TIM_ETR_SetConfig:
 3225              		@ args = 0, pretend = 0, frame = 0
 3226              		@ frame_needed = 0, uses_anonymous_args = 0
 3227 0000 10B5     		push	{r4, lr}
 3228 0002 8468     		ldr	r4, [r0, #8]
 3229 0004 24F47F44 		bic	r4, r4, #65280
 3230 0008 2143     		orrs	r1, r1, r4
 3231 000a 0A43     		orrs	r2, r2, r1
 3232 000c 42EA0323 		orr	r3, r2, r3, lsl #8
 3233 0010 8360     		str	r3, [r0, #8]
 3234 0012 10BD     		pop	{r4, pc}
 3236              		.section	.text.HAL_TIM_ConfigOCrefClear,"ax",%progbits
 3237              		.align	1
 3238              		.global	HAL_TIM_ConfigOCrefClear
 3239              		.thumb
 3240              		.thumb_func
 3242              	HAL_TIM_ConfigOCrefClear:
 3243              		@ args = 0, pretend = 0, frame = 0
 3244              		@ frame_needed = 0, uses_anonymous_args = 0
 3245 0000 90F83C30 		ldrb	r3, [r0, #60]	@ zero_extendqisi2
 3246 0004 70B5     		push	{r4, r5, r6, lr}
 3247 0006 012B     		cmp	r3, #1
ARM GAS  /tmp/ccRVpOvn.s 			page 55


 3248 0008 0446     		mov	r4, r0
 3249 000a 0D46     		mov	r5, r1
 3250 000c 1646     		mov	r6, r2
 3251 000e 4FF00200 		mov	r0, #2
 3252 0012 5AD0     		beq	.L464
 3253 0014 84F83D00 		strb	r0, [r4, #61]
 3254 0018 4868     		ldr	r0, [r1, #4]
 3255 001a 0123     		movs	r3, #1
 3256 001c 84F83C30 		strb	r3, [r4, #60]
 3257 0020 10B1     		cbz	r0, .L466
 3258 0022 9842     		cmp	r0, r3
 3259 0024 06D0     		beq	.L467
 3260 0026 12E0     		b	.L465
 3261              	.L466:
 3262 0028 2268     		ldr	r2, [r4]
 3263 002a 9368     		ldr	r3, [r2, #8]
 3264 002c 23F47F43 		bic	r3, r3, #65280
 3265 0030 9360     		str	r3, [r2, #8]
 3266 0032 0CE0     		b	.L465
 3267              	.L467:
 3268 0034 C968     		ldr	r1, [r1, #12]
 3269 0036 29B1     		cbz	r1, .L468
 3270 0038 0023     		movs	r3, #0
 3271 003a 84F83D00 		strb	r0, [r4, #61]
 3272 003e 84F83C30 		strb	r3, [r4, #60]
 3273 0042 70BD     		pop	{r4, r5, r6, pc}
 3274              	.L468:
 3275 0044 2068     		ldr	r0, [r4]
 3276 0046 AA68     		ldr	r2, [r5, #8]
 3277 0048 2B69     		ldr	r3, [r5, #16]
 3278 004a FFF7FEFF 		bl	TIM_ETR_SetConfig
 3279              	.L465:
 3280 004e 0C2E     		cmp	r6, #12
 3281 0050 35D8     		bhi	.L469
 3282 0052 DFE806F0 		tbb	[pc, r6]
 3283              	.L471:
 3284 0056 07       		.byte	(.L470-.L471)/2
 3285 0057 34       		.byte	(.L469-.L471)/2
 3286 0058 34       		.byte	(.L469-.L471)/2
 3287 0059 34       		.byte	(.L469-.L471)/2
 3288 005a 12       		.byte	(.L472-.L471)/2
 3289 005b 34       		.byte	(.L469-.L471)/2
 3290 005c 34       		.byte	(.L469-.L471)/2
 3291 005d 34       		.byte	(.L469-.L471)/2
 3292 005e 1E       		.byte	(.L473-.L471)/2
 3293 005f 34       		.byte	(.L469-.L471)/2
 3294 0060 34       		.byte	(.L469-.L471)/2
 3295 0061 34       		.byte	(.L469-.L471)/2
 3296 0062 29       		.byte	(.L474-.L471)/2
 3297 0063 00       		.p2align 1
 3298              	.L470:
 3299 0064 2A68     		ldr	r2, [r5]
 3300 0066 2368     		ldr	r3, [r4]
 3301 0068 1AB1     		cbz	r2, .L475
 3302 006a 9A69     		ldr	r2, [r3, #24]
 3303 006c 42F08002 		orr	r2, r2, #128
 3304 0070 09E0     		b	.L480
ARM GAS  /tmp/ccRVpOvn.s 			page 56


 3305              	.L475:
 3306 0072 9A69     		ldr	r2, [r3, #24]
 3307 0074 22F08002 		bic	r2, r2, #128
 3308 0078 05E0     		b	.L480
 3309              	.L472:
 3310 007a 2A68     		ldr	r2, [r5]
 3311 007c 2368     		ldr	r3, [r4]
 3312 007e 22B1     		cbz	r2, .L476
 3313 0080 9A69     		ldr	r2, [r3, #24]
 3314 0082 42F40042 		orr	r2, r2, #32768
 3315              	.L480:
 3316 0086 9A61     		str	r2, [r3, #24]
 3317 0088 19E0     		b	.L469
 3318              	.L476:
 3319 008a 9A69     		ldr	r2, [r3, #24]
 3320 008c 22F40042 		bic	r2, r2, #32768
 3321 0090 F9E7     		b	.L480
 3322              	.L473:
 3323 0092 2A68     		ldr	r2, [r5]
 3324 0094 2368     		ldr	r3, [r4]
 3325 0096 1AB1     		cbz	r2, .L477
 3326 0098 DA69     		ldr	r2, [r3, #28]
 3327 009a 42F08002 		orr	r2, r2, #128
 3328 009e 0DE0     		b	.L481
 3329              	.L477:
 3330 00a0 DA69     		ldr	r2, [r3, #28]
 3331 00a2 22F08002 		bic	r2, r2, #128
 3332 00a6 09E0     		b	.L481
 3333              	.L474:
 3334 00a8 2A68     		ldr	r2, [r5]
 3335 00aa 2368     		ldr	r3, [r4]
 3336 00ac 1AB1     		cbz	r2, .L478
 3337 00ae DA69     		ldr	r2, [r3, #28]
 3338 00b0 42F40042 		orr	r2, r2, #32768
 3339 00b4 02E0     		b	.L481
 3340              	.L478:
 3341 00b6 DA69     		ldr	r2, [r3, #28]
 3342 00b8 22F40042 		bic	r2, r2, #32768
 3343              	.L481:
 3344 00bc DA61     		str	r2, [r3, #28]
 3345              	.L469:
 3346 00be 0123     		movs	r3, #1
 3347 00c0 0020     		movs	r0, #0
 3348 00c2 84F83D30 		strb	r3, [r4, #61]
 3349 00c6 84F83C00 		strb	r0, [r4, #60]
 3350              	.L464:
 3351 00ca 70BD     		pop	{r4, r5, r6, pc}
 3353              		.section	.text.HAL_TIM_ConfigClockSource,"ax",%progbits
 3354              		.align	1
 3355              		.global	HAL_TIM_ConfigClockSource
 3356              		.thumb
 3357              		.thumb_func
 3359              	HAL_TIM_ConfigClockSource:
 3360              		@ args = 0, pretend = 0, frame = 0
 3361              		@ frame_needed = 0, uses_anonymous_args = 0
 3362 0000 90F83C20 		ldrb	r2, [r0, #60]	@ zero_extendqisi2
 3363 0004 70B5     		push	{r4, r5, r6, lr}
ARM GAS  /tmp/ccRVpOvn.s 			page 57


 3364 0006 012A     		cmp	r2, #1
 3365 0008 0446     		mov	r4, r0
 3366 000a 0B46     		mov	r3, r1
 3367 000c 4FF00200 		mov	r0, #2
 3368 0010 00F08E80 		beq	.L483
 3369 0014 84F83D00 		strb	r0, [r4, #61]
 3370 0018 2068     		ldr	r0, [r4]
 3371 001a 0122     		movs	r2, #1
 3372 001c 84F83C20 		strb	r2, [r4, #60]
 3373 0020 8268     		ldr	r2, [r0, #8]
 3374 0022 22F47F42 		bic	r2, r2, #65280
 3375 0026 22F07702 		bic	r2, r2, #119
 3376 002a 8260     		str	r2, [r0, #8]
 3377 002c 0A68     		ldr	r2, [r1]
 3378 002e 402A     		cmp	r2, #64
 3379 0030 59D0     		beq	.L485
 3380 0032 0AD8     		bhi	.L486
 3381 0034 102A     		cmp	r2, #16
 3382 0036 6ED0     		beq	.L487
 3383 0038 02D8     		bhi	.L488
 3384 003a 002A     		cmp	r2, #0
 3385 003c 6BD0     		beq	.L487
 3386 003e 71E0     		b	.L484
 3387              	.L488:
 3388 0040 202A     		cmp	r2, #32
 3389 0042 68D0     		beq	.L487
 3390 0044 302A     		cmp	r2, #48
 3391 0046 66D0     		beq	.L487
 3392 0048 6CE0     		b	.L484
 3393              	.L486:
 3394 004a 602A     		cmp	r2, #96
 3395 004c 33D0     		beq	.L489
 3396 004e 18D8     		bhi	.L490
 3397 0050 502A     		cmp	r2, #80
 3398 0052 67D1     		bne	.L484
 3399 0054 026A     		ldr	r2, [r0, #32]
 3400 0056 056A     		ldr	r5, [r0, #32]
 3401 0058 DE68     		ldr	r6, [r3, #12]
 3402 005a 25F00105 		bic	r5, r5, #1
 3403 005e 4968     		ldr	r1, [r1, #4]
 3404 0060 0562     		str	r5, [r0, #32]
 3405 0062 8369     		ldr	r3, [r0, #24]
 3406 0064 22F00A02 		bic	r2, r2, #10
 3407 0068 23F0F003 		bic	r3, r3, #240
 3408 006c 43EA0613 		orr	r3, r3, r6, lsl #4
 3409 0070 0A43     		orrs	r2, r2, r1
 3410 0072 8361     		str	r3, [r0, #24]
 3411 0074 0262     		str	r2, [r0, #32]
 3412 0076 8368     		ldr	r3, [r0, #8]
 3413 0078 23F07003 		bic	r3, r3, #112
 3414 007c 43F05703 		orr	r3, r3, #87
 3415 0080 47E0     		b	.L508
 3416              	.L490:
 3417 0082 702A     		cmp	r2, #112
 3418 0084 0CD0     		beq	.L492
 3419 0086 B2F5005F 		cmp	r2, #8192
 3420 008a 4BD1     		bne	.L484
ARM GAS  /tmp/ccRVpOvn.s 			page 58


 3421 008c 5A68     		ldr	r2, [r3, #4]
 3422 008e 8968     		ldr	r1, [r1, #8]
 3423 0090 DB68     		ldr	r3, [r3, #12]
 3424 0092 FFF7FEFF 		bl	TIM_ETR_SetConfig
 3425 0096 2268     		ldr	r2, [r4]
 3426 0098 9368     		ldr	r3, [r2, #8]
 3427 009a 43F48043 		orr	r3, r3, #16384
 3428 009e 08E0     		b	.L507
 3429              	.L492:
 3430 00a0 5A68     		ldr	r2, [r3, #4]
 3431 00a2 8968     		ldr	r1, [r1, #8]
 3432 00a4 DB68     		ldr	r3, [r3, #12]
 3433 00a6 FFF7FEFF 		bl	TIM_ETR_SetConfig
 3434 00aa 2268     		ldr	r2, [r4]
 3435 00ac 9368     		ldr	r3, [r2, #8]
 3436 00ae 43F07703 		orr	r3, r3, #119
 3437              	.L507:
 3438 00b2 9360     		str	r3, [r2, #8]
 3439 00b4 36E0     		b	.L484
 3440              	.L489:
 3441 00b6 4D68     		ldr	r5, [r1, #4]
 3442 00b8 CE68     		ldr	r6, [r1, #12]
 3443 00ba 016A     		ldr	r1, [r0, #32]
 3444 00bc 21F01001 		bic	r1, r1, #16
 3445 00c0 0162     		str	r1, [r0, #32]
 3446 00c2 8269     		ldr	r2, [r0, #24]
 3447 00c4 036A     		ldr	r3, [r0, #32]
 3448 00c6 22F47042 		bic	r2, r2, #61440
 3449 00ca 23F0A003 		bic	r3, r3, #160
 3450 00ce 43EA0513 		orr	r3, r3, r5, lsl #4
 3451 00d2 42EA0632 		orr	r2, r2, r6, lsl #12
 3452 00d6 8261     		str	r2, [r0, #24]
 3453 00d8 0362     		str	r3, [r0, #32]
 3454 00da 8368     		ldr	r3, [r0, #8]
 3455 00dc 23F07003 		bic	r3, r3, #112
 3456 00e0 43F06703 		orr	r3, r3, #103
 3457 00e4 15E0     		b	.L508
 3458              	.L485:
 3459 00e6 026A     		ldr	r2, [r0, #32]
 3460 00e8 056A     		ldr	r5, [r0, #32]
 3461 00ea DE68     		ldr	r6, [r3, #12]
 3462 00ec 25F00105 		bic	r5, r5, #1
 3463 00f0 4968     		ldr	r1, [r1, #4]
 3464 00f2 0562     		str	r5, [r0, #32]
 3465 00f4 8369     		ldr	r3, [r0, #24]
 3466 00f6 22F00A02 		bic	r2, r2, #10
 3467 00fa 23F0F003 		bic	r3, r3, #240
 3468 00fe 43EA0613 		orr	r3, r3, r6, lsl #4
 3469 0102 0A43     		orrs	r2, r2, r1
 3470 0104 8361     		str	r3, [r0, #24]
 3471 0106 0262     		str	r2, [r0, #32]
 3472 0108 8368     		ldr	r3, [r0, #8]
 3473 010a 23F07003 		bic	r3, r3, #112
 3474 010e 43F04703 		orr	r3, r3, #71
 3475              	.L508:
 3476 0112 8360     		str	r3, [r0, #8]
 3477 0114 06E0     		b	.L484
ARM GAS  /tmp/ccRVpOvn.s 			page 59


 3478              	.L487:
 3479 0116 8368     		ldr	r3, [r0, #8]
 3480 0118 42F00702 		orr	r2, r2, #7
 3481 011c 23F07003 		bic	r3, r3, #112
 3482 0120 1A43     		orrs	r2, r2, r3
 3483 0122 8260     		str	r2, [r0, #8]
 3484              	.L484:
 3485 0124 0123     		movs	r3, #1
 3486 0126 0020     		movs	r0, #0
 3487 0128 84F83D30 		strb	r3, [r4, #61]
 3488 012c 84F83C00 		strb	r0, [r4, #60]
 3489              	.L483:
 3490 0130 70BD     		pop	{r4, r5, r6, pc}
 3492              		.section	.text.TIM_SlaveTimer_SetConfig,"ax",%progbits
 3493              		.align	1
 3494              		.thumb
 3495              		.thumb_func
 3497              	TIM_SlaveTimer_SetConfig:
 3498              		@ args = 0, pretend = 0, frame = 0
 3499              		@ frame_needed = 0, uses_anonymous_args = 0
 3500 0000 38B5     		push	{r3, r4, r5, lr}
 3501 0002 0B46     		mov	r3, r1
 3502 0004 0068     		ldr	r0, [r0]
 3503 0006 4968     		ldr	r1, [r1, #4]
 3504 0008 8268     		ldr	r2, [r0, #8]
 3505 000a 1C68     		ldr	r4, [r3]
 3506 000c 22F07002 		bic	r2, r2, #112
 3507 0010 0A43     		orrs	r2, r2, r1
 3508 0012 22F00702 		bic	r2, r2, #7
 3509 0016 2243     		orrs	r2, r2, r4
 3510 0018 5029     		cmp	r1, #80
 3511 001a 8260     		str	r2, [r0, #8]
 3512 001c 1DD0     		beq	.L511
 3513 001e 02D8     		bhi	.L512
 3514 0020 4029     		cmp	r1, #64
 3515 0022 0AD0     		beq	.L513
 3516 0024 3DE0     		b	.L518
 3517              	.L512:
 3518 0026 6029     		cmp	r1, #96
 3519 0028 29D0     		beq	.L514
 3520 002a 7029     		cmp	r1, #112
 3521 002c 39D1     		bne	.L518
 3522 002e D968     		ldr	r1, [r3, #12]
 3523 0030 9A68     		ldr	r2, [r3, #8]
 3524 0032 1B69     		ldr	r3, [r3, #16]
 3525 0034 FFF7FEFF 		bl	TIM_ETR_SetConfig
 3526 0038 33E0     		b	.L518
 3527              	.L513:
 3528 003a 052C     		cmp	r4, #5
 3529 003c 33D0     		beq	.L517
 3530 003e 016A     		ldr	r1, [r0, #32]
 3531 0040 026A     		ldr	r2, [r0, #32]
 3532 0042 1B69     		ldr	r3, [r3, #16]
 3533 0044 22F00102 		bic	r2, r2, #1
 3534 0048 0262     		str	r2, [r0, #32]
 3535 004a 8269     		ldr	r2, [r0, #24]
 3536 004c 22F0F002 		bic	r2, r2, #240
ARM GAS  /tmp/ccRVpOvn.s 			page 60


 3537 0050 42EA0313 		orr	r3, r2, r3, lsl #4
 3538 0054 8361     		str	r3, [r0, #24]
 3539 0056 0162     		str	r1, [r0, #32]
 3540 0058 23E0     		b	.L518
 3541              	.L511:
 3542 005a 026A     		ldr	r2, [r0, #32]
 3543 005c 046A     		ldr	r4, [r0, #32]
 3544 005e 9968     		ldr	r1, [r3, #8]
 3545 0060 24F00104 		bic	r4, r4, #1
 3546 0064 1D69     		ldr	r5, [r3, #16]
 3547 0066 0462     		str	r4, [r0, #32]
 3548 0068 8369     		ldr	r3, [r0, #24]
 3549 006a 22F00A02 		bic	r2, r2, #10
 3550 006e 23F0F003 		bic	r3, r3, #240
 3551 0072 43EA0513 		orr	r3, r3, r5, lsl #4
 3552 0076 0A43     		orrs	r2, r2, r1
 3553 0078 8361     		str	r3, [r0, #24]
 3554 007a 0262     		str	r2, [r0, #32]
 3555 007c 11E0     		b	.L518
 3556              	.L514:
 3557 007e 016A     		ldr	r1, [r0, #32]
 3558 0080 9C68     		ldr	r4, [r3, #8]
 3559 0082 21F01001 		bic	r1, r1, #16
 3560 0086 1D69     		ldr	r5, [r3, #16]
 3561 0088 0162     		str	r1, [r0, #32]
 3562 008a 8269     		ldr	r2, [r0, #24]
 3563 008c 036A     		ldr	r3, [r0, #32]
 3564 008e 22F47042 		bic	r2, r2, #61440
 3565 0092 23F0A003 		bic	r3, r3, #160
 3566 0096 42EA0532 		orr	r2, r2, r5, lsl #12
 3567 009a 43EA0413 		orr	r3, r3, r4, lsl #4
 3568 009e 8261     		str	r2, [r0, #24]
 3569 00a0 0362     		str	r3, [r0, #32]
 3570              	.L518:
 3571 00a2 0020     		movs	r0, #0
 3572 00a4 38BD     		pop	{r3, r4, r5, pc}
 3573              	.L517:
 3574 00a6 0120     		movs	r0, #1
 3575 00a8 38BD     		pop	{r3, r4, r5, pc}
 3577              		.section	.text.HAL_TIM_SlaveConfigSynchro,"ax",%progbits
 3578              		.align	1
 3579              		.global	HAL_TIM_SlaveConfigSynchro
 3580              		.thumb
 3581              		.thumb_func
 3583              	HAL_TIM_SlaveConfigSynchro:
 3584              		@ args = 0, pretend = 0, frame = 0
 3585              		@ frame_needed = 0, uses_anonymous_args = 0
 3586 0000 38B5     		push	{r3, r4, r5, lr}
 3587 0002 90F83C30 		ldrb	r3, [r0, #60]	@ zero_extendqisi2
 3588 0006 0446     		mov	r4, r0
 3589 0008 012B     		cmp	r3, #1
 3590 000a 4FF00203 		mov	r3, #2
 3591 000e 1CD0     		beq	.L522
 3592 0010 0125     		movs	r5, #1
 3593 0012 80F83C50 		strb	r5, [r0, #60]
 3594 0016 80F83D30 		strb	r3, [r0, #61]
 3595 001a FFF7FEFF 		bl	TIM_SlaveTimer_SetConfig
ARM GAS  /tmp/ccRVpOvn.s 			page 61


 3596 001e 30B1     		cbz	r0, .L521
 3597 0020 0023     		movs	r3, #0
 3598 0022 84F83D50 		strb	r5, [r4, #61]
 3599 0026 84F83C30 		strb	r3, [r4, #60]
 3600 002a 2846     		mov	r0, r5
 3601 002c 38BD     		pop	{r3, r4, r5, pc}
 3602              	.L521:
 3603 002e 2368     		ldr	r3, [r4]
 3604 0030 DA68     		ldr	r2, [r3, #12]
 3605 0032 22F04002 		bic	r2, r2, #64
 3606 0036 DA60     		str	r2, [r3, #12]
 3607 0038 DA68     		ldr	r2, [r3, #12]
 3608 003a 22F48042 		bic	r2, r2, #16384
 3609 003e DA60     		str	r2, [r3, #12]
 3610 0040 84F83D50 		strb	r5, [r4, #61]
 3611 0044 84F83C00 		strb	r0, [r4, #60]
 3612 0048 38BD     		pop	{r3, r4, r5, pc}
 3613              	.L522:
 3614 004a 1846     		mov	r0, r3
 3615 004c 38BD     		pop	{r3, r4, r5, pc}
 3617              		.section	.text.HAL_TIM_SlaveConfigSynchro_IT,"ax",%progbits
 3618              		.align	1
 3619              		.global	HAL_TIM_SlaveConfigSynchro_IT
 3620              		.thumb
 3621              		.thumb_func
 3623              	HAL_TIM_SlaveConfigSynchro_IT:
 3624              		@ args = 0, pretend = 0, frame = 0
 3625              		@ frame_needed = 0, uses_anonymous_args = 0
 3626 0000 38B5     		push	{r3, r4, r5, lr}
 3627 0002 90F83C30 		ldrb	r3, [r0, #60]	@ zero_extendqisi2
 3628 0006 0446     		mov	r4, r0
 3629 0008 012B     		cmp	r3, #1
 3630 000a 4FF00203 		mov	r3, #2
 3631 000e 1CD0     		beq	.L526
 3632 0010 0125     		movs	r5, #1
 3633 0012 80F83C50 		strb	r5, [r0, #60]
 3634 0016 80F83D30 		strb	r3, [r0, #61]
 3635 001a FFF7FEFF 		bl	TIM_SlaveTimer_SetConfig
 3636 001e 30B1     		cbz	r0, .L525
 3637 0020 0023     		movs	r3, #0
 3638 0022 84F83D50 		strb	r5, [r4, #61]
 3639 0026 84F83C30 		strb	r3, [r4, #60]
 3640 002a 2846     		mov	r0, r5
 3641 002c 38BD     		pop	{r3, r4, r5, pc}
 3642              	.L525:
 3643 002e 2368     		ldr	r3, [r4]
 3644 0030 DA68     		ldr	r2, [r3, #12]
 3645 0032 42F04002 		orr	r2, r2, #64
 3646 0036 DA60     		str	r2, [r3, #12]
 3647 0038 DA68     		ldr	r2, [r3, #12]
 3648 003a 22F48042 		bic	r2, r2, #16384
 3649 003e DA60     		str	r2, [r3, #12]
 3650 0040 84F83D50 		strb	r5, [r4, #61]
 3651 0044 84F83C00 		strb	r0, [r4, #60]
 3652 0048 38BD     		pop	{r3, r4, r5, pc}
 3653              	.L526:
 3654 004a 1846     		mov	r0, r3
ARM GAS  /tmp/ccRVpOvn.s 			page 62


 3655 004c 38BD     		pop	{r3, r4, r5, pc}
 3657              		.section	.text.TIM_CCxChannelCmd,"ax",%progbits
 3658              		.align	1
 3659              		.global	TIM_CCxChannelCmd
 3660              		.thumb
 3661              		.thumb_func
 3663              	TIM_CCxChannelCmd:
 3664              		@ args = 0, pretend = 0, frame = 0
 3665              		@ frame_needed = 0, uses_anonymous_args = 0
 3666 0000 01F01F01 		and	r1, r1, #31
 3667 0004 10B5     		push	{r4, lr}
 3668 0006 0123     		movs	r3, #1
 3669 0008 046A     		ldr	r4, [r0, #32]
 3670 000a 8B40     		lsls	r3, r3, r1
 3671 000c 24EA0303 		bic	r3, r4, r3
 3672 0010 0362     		str	r3, [r0, #32]
 3673 0012 036A     		ldr	r3, [r0, #32]
 3674 0014 8A40     		lsls	r2, r2, r1
 3675 0016 1343     		orrs	r3, r3, r2
 3676 0018 0362     		str	r3, [r0, #32]
 3677 001a 10BD     		pop	{r4, pc}
 3679              		.section	.text.HAL_TIM_OC_Start,"ax",%progbits
 3680              		.align	1
 3681              		.global	HAL_TIM_OC_Start
 3682              		.thumb
 3683              		.thumb_func
 3685              	HAL_TIM_OC_Start:
 3686              		@ args = 0, pretend = 0, frame = 0
 3687              		@ frame_needed = 0, uses_anonymous_args = 0
 3688 0000 10B5     		push	{r4, lr}
 3689 0002 0446     		mov	r4, r0
 3690 0004 0122     		movs	r2, #1
 3691 0006 0068     		ldr	r0, [r0]
 3692 0008 FFF7FEFF 		bl	TIM_CCxChannelCmd
 3693 000c 2368     		ldr	r3, [r4]
 3694 000e 0C4A     		ldr	r2, .L536
 3695 0010 9342     		cmp	r3, r2
 3696 0012 0DD0     		beq	.L529
 3697 0014 02F50062 		add	r2, r2, #2048
 3698 0018 9342     		cmp	r3, r2
 3699 001a 09D0     		beq	.L529
 3700              	.L531:
 3701 001c 9A68     		ldr	r2, [r3, #8]
 3702 001e 02F00702 		and	r2, r2, #7
 3703 0022 062A     		cmp	r2, #6
 3704 0024 09D0     		beq	.L534
 3705 0026 1A68     		ldr	r2, [r3]
 3706 0028 42F00102 		orr	r2, r2, #1
 3707 002c 1A60     		str	r2, [r3]
 3708 002e 04E0     		b	.L534
 3709              	.L529:
 3710 0030 5A6C     		ldr	r2, [r3, #68]
 3711 0032 42F40042 		orr	r2, r2, #32768
 3712 0036 5A64     		str	r2, [r3, #68]
 3713 0038 F0E7     		b	.L531
 3714              	.L534:
 3715 003a 0020     		movs	r0, #0
ARM GAS  /tmp/ccRVpOvn.s 			page 63


 3716 003c 10BD     		pop	{r4, pc}
 3717              	.L537:
 3718 003e 00BF     		.align	2
 3719              	.L536:
 3720 0040 002C0140 		.word	1073818624
 3722              		.section	.text.HAL_TIM_OC_Stop,"ax",%progbits
 3723              		.align	1
 3724              		.global	HAL_TIM_OC_Stop
 3725              		.thumb
 3726              		.thumb_func
 3728              	HAL_TIM_OC_Stop:
 3729              		@ args = 0, pretend = 0, frame = 0
 3730              		@ frame_needed = 0, uses_anonymous_args = 0
 3731 0000 10B5     		push	{r4, lr}
 3732 0002 0446     		mov	r4, r0
 3733 0004 0022     		movs	r2, #0
 3734 0006 0068     		ldr	r0, [r0]
 3735 0008 FFF7FEFF 		bl	TIM_CCxChannelCmd
 3736 000c 2368     		ldr	r3, [r4]
 3737 000e 124A     		ldr	r2, .L544
 3738 0010 9342     		cmp	r3, r2
 3739 0012 03D0     		beq	.L539
 3740 0014 02F50062 		add	r2, r2, #2048
 3741 0018 9342     		cmp	r3, r2
 3742 001a 0DD1     		bne	.L540
 3743              	.L539:
 3744 001c 41F21112 		movw	r2, #4369
 3745 0020 196A     		ldr	r1, [r3, #32]
 3746 0022 0A40     		ands	r2, r2, r1
 3747 0024 42B9     		cbnz	r2, .L540
 3748 0026 40F24442 		movw	r2, #1092
 3749 002a 196A     		ldr	r1, [r3, #32]
 3750 002c 0A40     		ands	r2, r2, r1
 3751 002e 1AB9     		cbnz	r2, .L540
 3752 0030 5A6C     		ldr	r2, [r3, #68]
 3753 0032 22F40042 		bic	r2, r2, #32768
 3754 0036 5A64     		str	r2, [r3, #68]
 3755              	.L540:
 3756 0038 41F21112 		movw	r2, #4369
 3757 003c 196A     		ldr	r1, [r3, #32]
 3758 003e 0A40     		ands	r2, r2, r1
 3759 0040 42B9     		cbnz	r2, .L543
 3760 0042 40F24442 		movw	r2, #1092
 3761 0046 196A     		ldr	r1, [r3, #32]
 3762 0048 0A40     		ands	r2, r2, r1
 3763 004a 1AB9     		cbnz	r2, .L543
 3764 004c 1A68     		ldr	r2, [r3]
 3765 004e 22F00102 		bic	r2, r2, #1
 3766 0052 1A60     		str	r2, [r3]
 3767              	.L543:
 3768 0054 0020     		movs	r0, #0
 3769 0056 10BD     		pop	{r4, pc}
 3770              	.L545:
 3771              		.align	2
 3772              	.L544:
 3773 0058 002C0140 		.word	1073818624
 3775              		.section	.text.HAL_TIM_OC_Start_IT,"ax",%progbits
ARM GAS  /tmp/ccRVpOvn.s 			page 64


 3776              		.align	1
 3777              		.global	HAL_TIM_OC_Start_IT
 3778              		.thumb
 3779              		.thumb_func
 3781              	HAL_TIM_OC_Start_IT:
 3782              		@ args = 0, pretend = 0, frame = 0
 3783              		@ frame_needed = 0, uses_anonymous_args = 0
 3784 0000 10B5     		push	{r4, lr}
 3785 0002 0446     		mov	r4, r0
 3786 0004 0C29     		cmp	r1, #12
 3787 0006 1CD8     		bhi	.L547
 3788 0008 DFE801F0 		tbb	[pc, r1]
 3789              	.L549:
 3790 000c 07       		.byte	(.L548-.L549)/2
 3791 000d 1B       		.byte	(.L547-.L549)/2
 3792 000e 1B       		.byte	(.L547-.L549)/2
 3793 000f 1B       		.byte	(.L547-.L549)/2
 3794 0010 0C       		.byte	(.L550-.L549)/2
 3795 0011 1B       		.byte	(.L547-.L549)/2
 3796 0012 1B       		.byte	(.L547-.L549)/2
 3797 0013 1B       		.byte	(.L547-.L549)/2
 3798 0014 11       		.byte	(.L551-.L549)/2
 3799 0015 1B       		.byte	(.L547-.L549)/2
 3800 0016 1B       		.byte	(.L547-.L549)/2
 3801 0017 1B       		.byte	(.L547-.L549)/2
 3802 0018 16       		.byte	(.L552-.L549)/2
 3803 0019 00       		.p2align 1
 3804              	.L548:
 3805 001a 0268     		ldr	r2, [r0]
 3806 001c D368     		ldr	r3, [r2, #12]
 3807 001e 43F00203 		orr	r3, r3, #2
 3808 0022 0DE0     		b	.L560
 3809              	.L550:
 3810 0024 0268     		ldr	r2, [r0]
 3811 0026 D368     		ldr	r3, [r2, #12]
 3812 0028 43F00403 		orr	r3, r3, #4
 3813 002c 08E0     		b	.L560
 3814              	.L551:
 3815 002e 0268     		ldr	r2, [r0]
 3816 0030 D368     		ldr	r3, [r2, #12]
 3817 0032 43F00803 		orr	r3, r3, #8
 3818 0036 03E0     		b	.L560
 3819              	.L552:
 3820 0038 0268     		ldr	r2, [r0]
 3821 003a D368     		ldr	r3, [r2, #12]
 3822 003c 43F01003 		orr	r3, r3, #16
 3823              	.L560:
 3824 0040 D360     		str	r3, [r2, #12]
 3825              	.L547:
 3826 0042 0122     		movs	r2, #1
 3827 0044 2068     		ldr	r0, [r4]
 3828 0046 FFF7FEFF 		bl	TIM_CCxChannelCmd
 3829 004a 2368     		ldr	r3, [r4]
 3830 004c 0B4A     		ldr	r2, .L561
 3831 004e 9342     		cmp	r3, r2
 3832 0050 0DD0     		beq	.L553
 3833 0052 02F50062 		add	r2, r2, #2048
ARM GAS  /tmp/ccRVpOvn.s 			page 65


 3834 0056 9342     		cmp	r3, r2
 3835 0058 09D0     		beq	.L553
 3836              	.L555:
 3837 005a 9A68     		ldr	r2, [r3, #8]
 3838 005c 02F00702 		and	r2, r2, #7
 3839 0060 062A     		cmp	r2, #6
 3840 0062 09D0     		beq	.L558
 3841 0064 1A68     		ldr	r2, [r3]
 3842 0066 42F00102 		orr	r2, r2, #1
 3843 006a 1A60     		str	r2, [r3]
 3844 006c 04E0     		b	.L558
 3845              	.L553:
 3846 006e 5A6C     		ldr	r2, [r3, #68]
 3847 0070 42F40042 		orr	r2, r2, #32768
 3848 0074 5A64     		str	r2, [r3, #68]
 3849 0076 F0E7     		b	.L555
 3850              	.L558:
 3851 0078 0020     		movs	r0, #0
 3852 007a 10BD     		pop	{r4, pc}
 3853              	.L562:
 3854              		.align	2
 3855              	.L561:
 3856 007c 002C0140 		.word	1073818624
 3858              		.section	.text.HAL_TIM_OC_Stop_IT,"ax",%progbits
 3859              		.align	1
 3860              		.global	HAL_TIM_OC_Stop_IT
 3861              		.thumb
 3862              		.thumb_func
 3864              	HAL_TIM_OC_Stop_IT:
 3865              		@ args = 0, pretend = 0, frame = 0
 3866              		@ frame_needed = 0, uses_anonymous_args = 0
 3867 0000 10B5     		push	{r4, lr}
 3868 0002 0446     		mov	r4, r0
 3869 0004 0C29     		cmp	r1, #12
 3870 0006 1CD8     		bhi	.L564
 3871 0008 DFE801F0 		tbb	[pc, r1]
 3872              	.L566:
 3873 000c 07       		.byte	(.L565-.L566)/2
 3874 000d 1B       		.byte	(.L564-.L566)/2
 3875 000e 1B       		.byte	(.L564-.L566)/2
 3876 000f 1B       		.byte	(.L564-.L566)/2
 3877 0010 0C       		.byte	(.L567-.L566)/2
 3878 0011 1B       		.byte	(.L564-.L566)/2
 3879 0012 1B       		.byte	(.L564-.L566)/2
 3880 0013 1B       		.byte	(.L564-.L566)/2
 3881 0014 11       		.byte	(.L568-.L566)/2
 3882 0015 1B       		.byte	(.L564-.L566)/2
 3883 0016 1B       		.byte	(.L564-.L566)/2
 3884 0017 1B       		.byte	(.L564-.L566)/2
 3885 0018 16       		.byte	(.L569-.L566)/2
 3886 0019 00       		.p2align 1
 3887              	.L565:
 3888 001a 0268     		ldr	r2, [r0]
 3889 001c D368     		ldr	r3, [r2, #12]
 3890 001e 23F00203 		bic	r3, r3, #2
 3891 0022 0DE0     		b	.L575
 3892              	.L567:
ARM GAS  /tmp/ccRVpOvn.s 			page 66


 3893 0024 0268     		ldr	r2, [r0]
 3894 0026 D368     		ldr	r3, [r2, #12]
 3895 0028 23F00403 		bic	r3, r3, #4
 3896 002c 08E0     		b	.L575
 3897              	.L568:
 3898 002e 0268     		ldr	r2, [r0]
 3899 0030 D368     		ldr	r3, [r2, #12]
 3900 0032 23F00803 		bic	r3, r3, #8
 3901 0036 03E0     		b	.L575
 3902              	.L569:
 3903 0038 0268     		ldr	r2, [r0]
 3904 003a D368     		ldr	r3, [r2, #12]
 3905 003c 23F01003 		bic	r3, r3, #16
 3906              	.L575:
 3907 0040 D360     		str	r3, [r2, #12]
 3908              	.L564:
 3909 0042 0022     		movs	r2, #0
 3910 0044 2068     		ldr	r0, [r4]
 3911 0046 FFF7FEFF 		bl	TIM_CCxChannelCmd
 3912 004a 2368     		ldr	r3, [r4]
 3913 004c 124A     		ldr	r2, .L576
 3914 004e 9342     		cmp	r3, r2
 3915 0050 03D0     		beq	.L570
 3916 0052 02F50062 		add	r2, r2, #2048
 3917 0056 9342     		cmp	r3, r2
 3918 0058 0DD1     		bne	.L571
 3919              	.L570:
 3920 005a 41F21112 		movw	r2, #4369
 3921 005e 196A     		ldr	r1, [r3, #32]
 3922 0060 0A40     		ands	r2, r2, r1
 3923 0062 42B9     		cbnz	r2, .L571
 3924 0064 40F24442 		movw	r2, #1092
 3925 0068 196A     		ldr	r1, [r3, #32]
 3926 006a 0A40     		ands	r2, r2, r1
 3927 006c 1AB9     		cbnz	r2, .L571
 3928 006e 5A6C     		ldr	r2, [r3, #68]
 3929 0070 22F40042 		bic	r2, r2, #32768
 3930 0074 5A64     		str	r2, [r3, #68]
 3931              	.L571:
 3932 0076 41F21112 		movw	r2, #4369
 3933 007a 196A     		ldr	r1, [r3, #32]
 3934 007c 0A40     		ands	r2, r2, r1
 3935 007e 42B9     		cbnz	r2, .L574
 3936 0080 40F24442 		movw	r2, #1092
 3937 0084 196A     		ldr	r1, [r3, #32]
 3938 0086 0A40     		ands	r2, r2, r1
 3939 0088 1AB9     		cbnz	r2, .L574
 3940 008a 1A68     		ldr	r2, [r3]
 3941 008c 22F00102 		bic	r2, r2, #1
 3942 0090 1A60     		str	r2, [r3]
 3943              	.L574:
 3944 0092 0020     		movs	r0, #0
 3945 0094 10BD     		pop	{r4, pc}
 3946              	.L577:
 3947 0096 00BF     		.align	2
 3948              	.L576:
 3949 0098 002C0140 		.word	1073818624
ARM GAS  /tmp/ccRVpOvn.s 			page 67


 3951              		.section	.text.HAL_TIM_OC_Start_DMA,"ax",%progbits
 3952              		.align	1
 3953              		.global	HAL_TIM_OC_Start_DMA
 3954              		.thumb
 3955              		.thumb_func
 3957              	HAL_TIM_OC_Start_DMA:
 3958              		@ args = 0, pretend = 0, frame = 0
 3959              		@ frame_needed = 0, uses_anonymous_args = 0
 3960 0000 38B5     		push	{r3, r4, r5, lr}
 3961 0002 0446     		mov	r4, r0
 3962 0004 90F83D00 		ldrb	r0, [r0, #61]	@ zero_extendqisi2
 3963 0008 0D46     		mov	r5, r1
 3964 000a C0B2     		uxtb	r0, r0
 3965 000c 0228     		cmp	r0, #2
 3966 000e 1146     		mov	r1, r2
 3967 0010 7AD0     		beq	.L596
 3968 0012 94F83D20 		ldrb	r2, [r4, #61]	@ zero_extendqisi2
 3969 0016 012A     		cmp	r2, #1
 3970 0018 06D1     		bne	.L580
 3971 001a 11B9     		cbnz	r1, .L581
 3972 001c 0BB1     		cbz	r3, .L581
 3973              	.L588:
 3974 001e 0120     		movs	r0, #1
 3975 0020 38BD     		pop	{r3, r4, r5, pc}
 3976              	.L581:
 3977 0022 0222     		movs	r2, #2
 3978 0024 84F83D20 		strb	r2, [r4, #61]
 3979              	.L580:
 3980 0028 0C2D     		cmp	r5, #12
 3981 002a 50D8     		bhi	.L582
 3982 002c DFE805F0 		tbb	[pc, r5]
 3983              	.L584:
 3984 0030 07       		.byte	(.L583-.L584)/2
 3985 0031 4F       		.byte	(.L582-.L584)/2
 3986 0032 4F       		.byte	(.L582-.L584)/2
 3987 0033 4F       		.byte	(.L582-.L584)/2
 3988 0034 19       		.byte	(.L585-.L584)/2
 3989 0035 4F       		.byte	(.L582-.L584)/2
 3990 0036 4F       		.byte	(.L582-.L584)/2
 3991 0037 4F       		.byte	(.L582-.L584)/2
 3992 0038 2B       		.byte	(.L586-.L584)/2
 3993 0039 4F       		.byte	(.L582-.L584)/2
 3994 003a 4F       		.byte	(.L582-.L584)/2
 3995 003b 4F       		.byte	(.L582-.L584)/2
 3996 003c 3D       		.byte	(.L587-.L584)/2
 3997 003d 00       		.p2align 1
 3998              	.L583:
 3999 003e 606A     		ldr	r0, [r4, #36]
 4000 0040 324A     		ldr	r2, .L598
 4001 0042 8262     		str	r2, [r0, #40]
 4002 0044 324A     		ldr	r2, .L598+4
 4003 0046 C262     		str	r2, [r0, #44]
 4004 0048 324A     		ldr	r2, .L598+8
 4005 004a 0263     		str	r2, [r0, #48]
 4006 004c 2268     		ldr	r2, [r4]
 4007 004e 3432     		adds	r2, r2, #52
 4008 0050 FFF7FEFF 		bl	HAL_DMA_Start_IT
ARM GAS  /tmp/ccRVpOvn.s 			page 68


 4009 0054 0028     		cmp	r0, #0
 4010 0056 E2D1     		bne	.L588
 4011 0058 2268     		ldr	r2, [r4]
 4012 005a D368     		ldr	r3, [r2, #12]
 4013 005c 43F40073 		orr	r3, r3, #512
 4014 0060 34E0     		b	.L597
 4015              	.L585:
 4016 0062 A06A     		ldr	r0, [r4, #40]
 4017 0064 294A     		ldr	r2, .L598
 4018 0066 8262     		str	r2, [r0, #40]
 4019 0068 294A     		ldr	r2, .L598+4
 4020 006a C262     		str	r2, [r0, #44]
 4021 006c 294A     		ldr	r2, .L598+8
 4022 006e 0263     		str	r2, [r0, #48]
 4023 0070 2268     		ldr	r2, [r4]
 4024 0072 3832     		adds	r2, r2, #56
 4025 0074 FFF7FEFF 		bl	HAL_DMA_Start_IT
 4026 0078 0028     		cmp	r0, #0
 4027 007a D0D1     		bne	.L588
 4028 007c 2268     		ldr	r2, [r4]
 4029 007e D368     		ldr	r3, [r2, #12]
 4030 0080 43F48063 		orr	r3, r3, #1024
 4031 0084 22E0     		b	.L597
 4032              	.L586:
 4033 0086 E06A     		ldr	r0, [r4, #44]
 4034 0088 204A     		ldr	r2, .L598
 4035 008a 8262     		str	r2, [r0, #40]
 4036 008c 204A     		ldr	r2, .L598+4
 4037 008e C262     		str	r2, [r0, #44]
 4038 0090 204A     		ldr	r2, .L598+8
 4039 0092 0263     		str	r2, [r0, #48]
 4040 0094 2268     		ldr	r2, [r4]
 4041 0096 3C32     		adds	r2, r2, #60
 4042 0098 FFF7FEFF 		bl	HAL_DMA_Start_IT
 4043 009c 0028     		cmp	r0, #0
 4044 009e BED1     		bne	.L588
 4045 00a0 2268     		ldr	r2, [r4]
 4046 00a2 D368     		ldr	r3, [r2, #12]
 4047 00a4 43F40063 		orr	r3, r3, #2048
 4048 00a8 10E0     		b	.L597
 4049              	.L587:
 4050 00aa 206B     		ldr	r0, [r4, #48]
 4051 00ac 174A     		ldr	r2, .L598
 4052 00ae 8262     		str	r2, [r0, #40]
 4053 00b0 174A     		ldr	r2, .L598+4
 4054 00b2 C262     		str	r2, [r0, #44]
 4055 00b4 174A     		ldr	r2, .L598+8
 4056 00b6 0263     		str	r2, [r0, #48]
 4057 00b8 2268     		ldr	r2, [r4]
 4058 00ba 4032     		adds	r2, r2, #64
 4059 00bc FFF7FEFF 		bl	HAL_DMA_Start_IT
 4060 00c0 0028     		cmp	r0, #0
 4061 00c2 ACD1     		bne	.L588
 4062 00c4 2268     		ldr	r2, [r4]
 4063 00c6 D368     		ldr	r3, [r2, #12]
 4064 00c8 43F48053 		orr	r3, r3, #4096
 4065              	.L597:
ARM GAS  /tmp/ccRVpOvn.s 			page 69


 4066 00cc D360     		str	r3, [r2, #12]
 4067              	.L582:
 4068 00ce 0122     		movs	r2, #1
 4069 00d0 2068     		ldr	r0, [r4]
 4070 00d2 2946     		mov	r1, r5
 4071 00d4 FFF7FEFF 		bl	TIM_CCxChannelCmd
 4072 00d8 2368     		ldr	r3, [r4]
 4073 00da 0F4A     		ldr	r2, .L598+12
 4074 00dc 9342     		cmp	r3, r2
 4075 00de 0ED0     		beq	.L589
 4076 00e0 02F50062 		add	r2, r2, #2048
 4077 00e4 9342     		cmp	r3, r2
 4078 00e6 0AD0     		beq	.L589
 4079              	.L590:
 4080 00e8 9A68     		ldr	r2, [r3, #8]
 4081 00ea 0020     		movs	r0, #0
 4082 00ec 02F00702 		and	r2, r2, #7
 4083 00f0 062A     		cmp	r2, #6
 4084 00f2 1EBF     		ittt	ne
 4085 00f4 1A68     		ldrne	r2, [r3]
 4086 00f6 42F00102 		orrne	r2, r2, #1
 4087 00fa 1A60     		strne	r2, [r3]
 4088 00fc 38BD     		pop	{r3, r4, r5, pc}
 4089              	.L589:
 4090 00fe 5A6C     		ldr	r2, [r3, #68]
 4091 0100 42F40042 		orr	r2, r2, #32768
 4092 0104 5A64     		str	r2, [r3, #68]
 4093 0106 EFE7     		b	.L590
 4094              	.L596:
 4095 0108 38BD     		pop	{r3, r4, r5, pc}
 4096              	.L599:
 4097 010a 00BF     		.align	2
 4098              	.L598:
 4099 010c 00000000 		.word	TIM_DMADelayPulseCplt
 4100 0110 00000000 		.word	TIM_DMADelayPulseHalfCplt
 4101 0114 00000000 		.word	TIM_DMAError
 4102 0118 002C0140 		.word	1073818624
 4104              		.section	.text.HAL_TIM_OC_Stop_DMA,"ax",%progbits
 4105              		.align	1
 4106              		.global	HAL_TIM_OC_Stop_DMA
 4107              		.thumb
 4108              		.thumb_func
 4110              	HAL_TIM_OC_Stop_DMA:
 4111              		@ args = 0, pretend = 0, frame = 0
 4112              		@ frame_needed = 0, uses_anonymous_args = 0
 4113 0000 38B5     		push	{r3, r4, r5, lr}
 4114 0002 0446     		mov	r4, r0
 4115 0004 0D46     		mov	r5, r1
 4116 0006 0C29     		cmp	r1, #12
 4117 0008 25D8     		bhi	.L601
 4118 000a DFE801F0 		tbb	[pc, r1]
 4119              	.L603:
 4120 000e 07       		.byte	(.L602-.L603)/2
 4121 000f 24       		.byte	(.L601-.L603)/2
 4122 0010 24       		.byte	(.L601-.L603)/2
 4123 0011 24       		.byte	(.L601-.L603)/2
 4124 0012 0E       		.byte	(.L604-.L603)/2
ARM GAS  /tmp/ccRVpOvn.s 			page 70


 4125 0013 24       		.byte	(.L601-.L603)/2
 4126 0014 24       		.byte	(.L601-.L603)/2
 4127 0015 24       		.byte	(.L601-.L603)/2
 4128 0016 15       		.byte	(.L605-.L603)/2
 4129 0017 24       		.byte	(.L601-.L603)/2
 4130 0018 24       		.byte	(.L601-.L603)/2
 4131 0019 24       		.byte	(.L601-.L603)/2
 4132 001a 1C       		.byte	(.L606-.L603)/2
 4133 001b 00       		.p2align 1
 4134              	.L602:
 4135 001c 0268     		ldr	r2, [r0]
 4136 001e 406A     		ldr	r0, [r0, #36]
 4137 0020 D368     		ldr	r3, [r2, #12]
 4138 0022 23F40073 		bic	r3, r3, #512
 4139 0026 D360     		str	r3, [r2, #12]
 4140 0028 13E0     		b	.L612
 4141              	.L604:
 4142 002a 0268     		ldr	r2, [r0]
 4143 002c 806A     		ldr	r0, [r0, #40]
 4144 002e D368     		ldr	r3, [r2, #12]
 4145 0030 23F48063 		bic	r3, r3, #1024
 4146 0034 D360     		str	r3, [r2, #12]
 4147 0036 0CE0     		b	.L612
 4148              	.L605:
 4149 0038 0268     		ldr	r2, [r0]
 4150 003a C06A     		ldr	r0, [r0, #44]
 4151 003c D368     		ldr	r3, [r2, #12]
 4152 003e 23F40063 		bic	r3, r3, #2048
 4153 0042 D360     		str	r3, [r2, #12]
 4154 0044 05E0     		b	.L612
 4155              	.L606:
 4156 0046 0268     		ldr	r2, [r0]
 4157 0048 006B     		ldr	r0, [r0, #48]
 4158 004a D368     		ldr	r3, [r2, #12]
 4159 004c 23F48053 		bic	r3, r3, #4096
 4160 0050 D360     		str	r3, [r2, #12]
 4161              	.L612:
 4162 0052 FFF7FEFF 		bl	HAL_DMA_Abort_IT
 4163              	.L601:
 4164 0056 0022     		movs	r2, #0
 4165 0058 2068     		ldr	r0, [r4]
 4166 005a 2946     		mov	r1, r5
 4167 005c FFF7FEFF 		bl	TIM_CCxChannelCmd
 4168 0060 2368     		ldr	r3, [r4]
 4169 0062 144A     		ldr	r2, .L613
 4170 0064 9342     		cmp	r3, r2
 4171 0066 03D0     		beq	.L607
 4172 0068 02F50062 		add	r2, r2, #2048
 4173 006c 9342     		cmp	r3, r2
 4174 006e 0DD1     		bne	.L608
 4175              	.L607:
 4176 0070 41F21112 		movw	r2, #4369
 4177 0074 196A     		ldr	r1, [r3, #32]
 4178 0076 0A40     		ands	r2, r2, r1
 4179 0078 42B9     		cbnz	r2, .L608
 4180 007a 40F24442 		movw	r2, #1092
 4181 007e 196A     		ldr	r1, [r3, #32]
ARM GAS  /tmp/ccRVpOvn.s 			page 71


 4182 0080 0A40     		ands	r2, r2, r1
 4183 0082 1AB9     		cbnz	r2, .L608
 4184 0084 5A6C     		ldr	r2, [r3, #68]
 4185 0086 22F40042 		bic	r2, r2, #32768
 4186 008a 5A64     		str	r2, [r3, #68]
 4187              	.L608:
 4188 008c 41F21112 		movw	r2, #4369
 4189 0090 196A     		ldr	r1, [r3, #32]
 4190 0092 0A40     		ands	r2, r2, r1
 4191 0094 42B9     		cbnz	r2, .L609
 4192 0096 40F24442 		movw	r2, #1092
 4193 009a 196A     		ldr	r1, [r3, #32]
 4194 009c 0A40     		ands	r2, r2, r1
 4195 009e 1AB9     		cbnz	r2, .L609
 4196 00a0 1A68     		ldr	r2, [r3]
 4197 00a2 22F00102 		bic	r2, r2, #1
 4198 00a6 1A60     		str	r2, [r3]
 4199              	.L609:
 4200 00a8 0123     		movs	r3, #1
 4201 00aa 84F83D30 		strb	r3, [r4, #61]
 4202 00ae 0020     		movs	r0, #0
 4203 00b0 38BD     		pop	{r3, r4, r5, pc}
 4204              	.L614:
 4205 00b2 00BF     		.align	2
 4206              	.L613:
 4207 00b4 002C0140 		.word	1073818624
 4209              		.section	.text.HAL_TIM_PWM_Start,"ax",%progbits
 4210              		.align	1
 4211              		.global	HAL_TIM_PWM_Start
 4212              		.thumb
 4213              		.thumb_func
 4215              	HAL_TIM_PWM_Start:
 4216              		@ args = 0, pretend = 0, frame = 0
 4217              		@ frame_needed = 0, uses_anonymous_args = 0
 4218 0000 10B5     		push	{r4, lr}
 4219 0002 0446     		mov	r4, r0
 4220 0004 0122     		movs	r2, #1
 4221 0006 0068     		ldr	r0, [r0]
 4222 0008 FFF7FEFF 		bl	TIM_CCxChannelCmd
 4223 000c 2368     		ldr	r3, [r4]
 4224 000e 0C4A     		ldr	r2, .L623
 4225 0010 9342     		cmp	r3, r2
 4226 0012 0DD0     		beq	.L616
 4227 0014 02F50062 		add	r2, r2, #2048
 4228 0018 9342     		cmp	r3, r2
 4229 001a 09D0     		beq	.L616
 4230              	.L618:
 4231 001c 9A68     		ldr	r2, [r3, #8]
 4232 001e 02F00702 		and	r2, r2, #7
 4233 0022 062A     		cmp	r2, #6
 4234 0024 09D0     		beq	.L621
 4235 0026 1A68     		ldr	r2, [r3]
 4236 0028 42F00102 		orr	r2, r2, #1
 4237 002c 1A60     		str	r2, [r3]
 4238 002e 04E0     		b	.L621
 4239              	.L616:
 4240 0030 5A6C     		ldr	r2, [r3, #68]
ARM GAS  /tmp/ccRVpOvn.s 			page 72


 4241 0032 42F40042 		orr	r2, r2, #32768
 4242 0036 5A64     		str	r2, [r3, #68]
 4243 0038 F0E7     		b	.L618
 4244              	.L621:
 4245 003a 0020     		movs	r0, #0
 4246 003c 10BD     		pop	{r4, pc}
 4247              	.L624:
 4248 003e 00BF     		.align	2
 4249              	.L623:
 4250 0040 002C0140 		.word	1073818624
 4252              		.section	.text.HAL_TIM_PWM_Stop,"ax",%progbits
 4253              		.align	1
 4254              		.global	HAL_TIM_PWM_Stop
 4255              		.thumb
 4256              		.thumb_func
 4258              	HAL_TIM_PWM_Stop:
 4259              		@ args = 0, pretend = 0, frame = 0
 4260              		@ frame_needed = 0, uses_anonymous_args = 0
 4261 0000 10B5     		push	{r4, lr}
 4262 0002 0446     		mov	r4, r0
 4263 0004 0022     		movs	r2, #0
 4264 0006 0068     		ldr	r0, [r0]
 4265 0008 FFF7FEFF 		bl	TIM_CCxChannelCmd
 4266 000c 2368     		ldr	r3, [r4]
 4267 000e 144A     		ldr	r2, .L631
 4268 0010 9342     		cmp	r3, r2
 4269 0012 03D0     		beq	.L626
 4270 0014 02F50062 		add	r2, r2, #2048
 4271 0018 9342     		cmp	r3, r2
 4272 001a 0DD1     		bne	.L627
 4273              	.L626:
 4274 001c 41F21112 		movw	r2, #4369
 4275 0020 196A     		ldr	r1, [r3, #32]
 4276 0022 0A40     		ands	r2, r2, r1
 4277 0024 42B9     		cbnz	r2, .L627
 4278 0026 40F24442 		movw	r2, #1092
 4279 002a 196A     		ldr	r1, [r3, #32]
 4280 002c 0A40     		ands	r2, r2, r1
 4281 002e 1AB9     		cbnz	r2, .L627
 4282 0030 5A6C     		ldr	r2, [r3, #68]
 4283 0032 22F40042 		bic	r2, r2, #32768
 4284 0036 5A64     		str	r2, [r3, #68]
 4285              	.L627:
 4286 0038 41F21112 		movw	r2, #4369
 4287 003c 196A     		ldr	r1, [r3, #32]
 4288 003e 0A40     		ands	r2, r2, r1
 4289 0040 42B9     		cbnz	r2, .L628
 4290 0042 40F24442 		movw	r2, #1092
 4291 0046 196A     		ldr	r1, [r3, #32]
 4292 0048 0A40     		ands	r2, r2, r1
 4293 004a 1AB9     		cbnz	r2, .L628
 4294 004c 1A68     		ldr	r2, [r3]
 4295 004e 22F00102 		bic	r2, r2, #1
 4296 0052 1A60     		str	r2, [r3]
 4297              	.L628:
 4298 0054 0123     		movs	r3, #1
 4299 0056 84F83D30 		strb	r3, [r4, #61]
ARM GAS  /tmp/ccRVpOvn.s 			page 73


 4300 005a 0020     		movs	r0, #0
 4301 005c 10BD     		pop	{r4, pc}
 4302              	.L632:
 4303 005e 00BF     		.align	2
 4304              	.L631:
 4305 0060 002C0140 		.word	1073818624
 4307              		.section	.text.HAL_TIM_PWM_Start_IT,"ax",%progbits
 4308              		.align	1
 4309              		.global	HAL_TIM_PWM_Start_IT
 4310              		.thumb
 4311              		.thumb_func
 4313              	HAL_TIM_PWM_Start_IT:
 4314              		@ args = 0, pretend = 0, frame = 0
 4315              		@ frame_needed = 0, uses_anonymous_args = 0
 4316 0000 10B5     		push	{r4, lr}
 4317 0002 0446     		mov	r4, r0
 4318 0004 0C29     		cmp	r1, #12
 4319 0006 1CD8     		bhi	.L634
 4320 0008 DFE801F0 		tbb	[pc, r1]
 4321              	.L636:
 4322 000c 07       		.byte	(.L635-.L636)/2
 4323 000d 1B       		.byte	(.L634-.L636)/2
 4324 000e 1B       		.byte	(.L634-.L636)/2
 4325 000f 1B       		.byte	(.L634-.L636)/2
 4326 0010 0C       		.byte	(.L637-.L636)/2
 4327 0011 1B       		.byte	(.L634-.L636)/2
 4328 0012 1B       		.byte	(.L634-.L636)/2
 4329 0013 1B       		.byte	(.L634-.L636)/2
 4330 0014 11       		.byte	(.L638-.L636)/2
 4331 0015 1B       		.byte	(.L634-.L636)/2
 4332 0016 1B       		.byte	(.L634-.L636)/2
 4333 0017 1B       		.byte	(.L634-.L636)/2
 4334 0018 16       		.byte	(.L639-.L636)/2
 4335 0019 00       		.p2align 1
 4336              	.L635:
 4337 001a 0268     		ldr	r2, [r0]
 4338 001c D368     		ldr	r3, [r2, #12]
 4339 001e 43F00203 		orr	r3, r3, #2
 4340 0022 0DE0     		b	.L647
 4341              	.L637:
 4342 0024 0268     		ldr	r2, [r0]
 4343 0026 D368     		ldr	r3, [r2, #12]
 4344 0028 43F00403 		orr	r3, r3, #4
 4345 002c 08E0     		b	.L647
 4346              	.L638:
 4347 002e 0268     		ldr	r2, [r0]
 4348 0030 D368     		ldr	r3, [r2, #12]
 4349 0032 43F00803 		orr	r3, r3, #8
 4350 0036 03E0     		b	.L647
 4351              	.L639:
 4352 0038 0268     		ldr	r2, [r0]
 4353 003a D368     		ldr	r3, [r2, #12]
 4354 003c 43F01003 		orr	r3, r3, #16
 4355              	.L647:
 4356 0040 D360     		str	r3, [r2, #12]
 4357              	.L634:
 4358 0042 0122     		movs	r2, #1
ARM GAS  /tmp/ccRVpOvn.s 			page 74


 4359 0044 2068     		ldr	r0, [r4]
 4360 0046 FFF7FEFF 		bl	TIM_CCxChannelCmd
 4361 004a 2368     		ldr	r3, [r4]
 4362 004c 0B4A     		ldr	r2, .L648
 4363 004e 9342     		cmp	r3, r2
 4364 0050 0DD0     		beq	.L640
 4365 0052 02F50062 		add	r2, r2, #2048
 4366 0056 9342     		cmp	r3, r2
 4367 0058 09D0     		beq	.L640
 4368              	.L642:
 4369 005a 9A68     		ldr	r2, [r3, #8]
 4370 005c 02F00702 		and	r2, r2, #7
 4371 0060 062A     		cmp	r2, #6
 4372 0062 09D0     		beq	.L645
 4373 0064 1A68     		ldr	r2, [r3]
 4374 0066 42F00102 		orr	r2, r2, #1
 4375 006a 1A60     		str	r2, [r3]
 4376 006c 04E0     		b	.L645
 4377              	.L640:
 4378 006e 5A6C     		ldr	r2, [r3, #68]
 4379 0070 42F40042 		orr	r2, r2, #32768
 4380 0074 5A64     		str	r2, [r3, #68]
 4381 0076 F0E7     		b	.L642
 4382              	.L645:
 4383 0078 0020     		movs	r0, #0
 4384 007a 10BD     		pop	{r4, pc}
 4385              	.L649:
 4386              		.align	2
 4387              	.L648:
 4388 007c 002C0140 		.word	1073818624
 4390              		.section	.text.HAL_TIM_PWM_Stop_IT,"ax",%progbits
 4391              		.align	1
 4392              		.global	HAL_TIM_PWM_Stop_IT
 4393              		.thumb
 4394              		.thumb_func
 4396              	HAL_TIM_PWM_Stop_IT:
 4397              		@ args = 0, pretend = 0, frame = 0
 4398              		@ frame_needed = 0, uses_anonymous_args = 0
 4399 0000 10B5     		push	{r4, lr}
 4400 0002 0446     		mov	r4, r0
 4401 0004 0C29     		cmp	r1, #12
 4402 0006 1CD8     		bhi	.L651
 4403 0008 DFE801F0 		tbb	[pc, r1]
 4404              	.L653:
 4405 000c 07       		.byte	(.L652-.L653)/2
 4406 000d 1B       		.byte	(.L651-.L653)/2
 4407 000e 1B       		.byte	(.L651-.L653)/2
 4408 000f 1B       		.byte	(.L651-.L653)/2
 4409 0010 0C       		.byte	(.L654-.L653)/2
 4410 0011 1B       		.byte	(.L651-.L653)/2
 4411 0012 1B       		.byte	(.L651-.L653)/2
 4412 0013 1B       		.byte	(.L651-.L653)/2
 4413 0014 11       		.byte	(.L655-.L653)/2
 4414 0015 1B       		.byte	(.L651-.L653)/2
 4415 0016 1B       		.byte	(.L651-.L653)/2
 4416 0017 1B       		.byte	(.L651-.L653)/2
 4417 0018 16       		.byte	(.L656-.L653)/2
ARM GAS  /tmp/ccRVpOvn.s 			page 75


 4418 0019 00       		.p2align 1
 4419              	.L652:
 4420 001a 0268     		ldr	r2, [r0]
 4421 001c D368     		ldr	r3, [r2, #12]
 4422 001e 23F00203 		bic	r3, r3, #2
 4423 0022 0DE0     		b	.L662
 4424              	.L654:
 4425 0024 0268     		ldr	r2, [r0]
 4426 0026 D368     		ldr	r3, [r2, #12]
 4427 0028 23F00403 		bic	r3, r3, #4
 4428 002c 08E0     		b	.L662
 4429              	.L655:
 4430 002e 0268     		ldr	r2, [r0]
 4431 0030 D368     		ldr	r3, [r2, #12]
 4432 0032 23F00803 		bic	r3, r3, #8
 4433 0036 03E0     		b	.L662
 4434              	.L656:
 4435 0038 0268     		ldr	r2, [r0]
 4436 003a D368     		ldr	r3, [r2, #12]
 4437 003c 23F01003 		bic	r3, r3, #16
 4438              	.L662:
 4439 0040 D360     		str	r3, [r2, #12]
 4440              	.L651:
 4441 0042 0022     		movs	r2, #0
 4442 0044 2068     		ldr	r0, [r4]
 4443 0046 FFF7FEFF 		bl	TIM_CCxChannelCmd
 4444 004a 2368     		ldr	r3, [r4]
 4445 004c 124A     		ldr	r2, .L663
 4446 004e 9342     		cmp	r3, r2
 4447 0050 03D0     		beq	.L657
 4448 0052 02F50062 		add	r2, r2, #2048
 4449 0056 9342     		cmp	r3, r2
 4450 0058 0DD1     		bne	.L658
 4451              	.L657:
 4452 005a 41F21112 		movw	r2, #4369
 4453 005e 196A     		ldr	r1, [r3, #32]
 4454 0060 0A40     		ands	r2, r2, r1
 4455 0062 42B9     		cbnz	r2, .L658
 4456 0064 40F24442 		movw	r2, #1092
 4457 0068 196A     		ldr	r1, [r3, #32]
 4458 006a 0A40     		ands	r2, r2, r1
 4459 006c 1AB9     		cbnz	r2, .L658
 4460 006e 5A6C     		ldr	r2, [r3, #68]
 4461 0070 22F40042 		bic	r2, r2, #32768
 4462 0074 5A64     		str	r2, [r3, #68]
 4463              	.L658:
 4464 0076 41F21112 		movw	r2, #4369
 4465 007a 196A     		ldr	r1, [r3, #32]
 4466 007c 0A40     		ands	r2, r2, r1
 4467 007e 42B9     		cbnz	r2, .L661
 4468 0080 40F24442 		movw	r2, #1092
 4469 0084 196A     		ldr	r1, [r3, #32]
 4470 0086 0A40     		ands	r2, r2, r1
 4471 0088 1AB9     		cbnz	r2, .L661
 4472 008a 1A68     		ldr	r2, [r3]
 4473 008c 22F00102 		bic	r2, r2, #1
 4474 0090 1A60     		str	r2, [r3]
ARM GAS  /tmp/ccRVpOvn.s 			page 76


 4475              	.L661:
 4476 0092 0020     		movs	r0, #0
 4477 0094 10BD     		pop	{r4, pc}
 4478              	.L664:
 4479 0096 00BF     		.align	2
 4480              	.L663:
 4481 0098 002C0140 		.word	1073818624
 4483              		.section	.text.HAL_TIM_PWM_Start_DMA,"ax",%progbits
 4484              		.align	1
 4485              		.global	HAL_TIM_PWM_Start_DMA
 4486              		.thumb
 4487              		.thumb_func
 4489              	HAL_TIM_PWM_Start_DMA:
 4490              		@ args = 0, pretend = 0, frame = 0
 4491              		@ frame_needed = 0, uses_anonymous_args = 0
 4492 0000 38B5     		push	{r3, r4, r5, lr}
 4493 0002 0446     		mov	r4, r0
 4494 0004 90F83D00 		ldrb	r0, [r0, #61]	@ zero_extendqisi2
 4495 0008 0D46     		mov	r5, r1
 4496 000a C0B2     		uxtb	r0, r0
 4497 000c 0228     		cmp	r0, #2
 4498 000e 1146     		mov	r1, r2
 4499 0010 7AD0     		beq	.L683
 4500 0012 94F83D20 		ldrb	r2, [r4, #61]	@ zero_extendqisi2
 4501 0016 012A     		cmp	r2, #1
 4502 0018 06D1     		bne	.L667
 4503 001a 11B9     		cbnz	r1, .L668
 4504 001c 0BB1     		cbz	r3, .L668
 4505              	.L675:
 4506 001e 0120     		movs	r0, #1
 4507 0020 38BD     		pop	{r3, r4, r5, pc}
 4508              	.L668:
 4509 0022 0222     		movs	r2, #2
 4510 0024 84F83D20 		strb	r2, [r4, #61]
 4511              	.L667:
 4512 0028 0C2D     		cmp	r5, #12
 4513 002a 50D8     		bhi	.L669
 4514 002c DFE805F0 		tbb	[pc, r5]
 4515              	.L671:
 4516 0030 07       		.byte	(.L670-.L671)/2
 4517 0031 4F       		.byte	(.L669-.L671)/2
 4518 0032 4F       		.byte	(.L669-.L671)/2
 4519 0033 4F       		.byte	(.L669-.L671)/2
 4520 0034 19       		.byte	(.L672-.L671)/2
 4521 0035 4F       		.byte	(.L669-.L671)/2
 4522 0036 4F       		.byte	(.L669-.L671)/2
 4523 0037 4F       		.byte	(.L669-.L671)/2
 4524 0038 2B       		.byte	(.L673-.L671)/2
 4525 0039 4F       		.byte	(.L669-.L671)/2
 4526 003a 4F       		.byte	(.L669-.L671)/2
 4527 003b 4F       		.byte	(.L669-.L671)/2
 4528 003c 3D       		.byte	(.L674-.L671)/2
 4529 003d 00       		.p2align 1
 4530              	.L670:
 4531 003e 606A     		ldr	r0, [r4, #36]
 4532 0040 324A     		ldr	r2, .L685
 4533 0042 8262     		str	r2, [r0, #40]
ARM GAS  /tmp/ccRVpOvn.s 			page 77


 4534 0044 324A     		ldr	r2, .L685+4
 4535 0046 C262     		str	r2, [r0, #44]
 4536 0048 324A     		ldr	r2, .L685+8
 4537 004a 0263     		str	r2, [r0, #48]
 4538 004c 2268     		ldr	r2, [r4]
 4539 004e 3432     		adds	r2, r2, #52
 4540 0050 FFF7FEFF 		bl	HAL_DMA_Start_IT
 4541 0054 0028     		cmp	r0, #0
 4542 0056 E2D1     		bne	.L675
 4543 0058 2268     		ldr	r2, [r4]
 4544 005a D368     		ldr	r3, [r2, #12]
 4545 005c 43F40073 		orr	r3, r3, #512
 4546 0060 34E0     		b	.L684
 4547              	.L672:
 4548 0062 A06A     		ldr	r0, [r4, #40]
 4549 0064 294A     		ldr	r2, .L685
 4550 0066 8262     		str	r2, [r0, #40]
 4551 0068 294A     		ldr	r2, .L685+4
 4552 006a C262     		str	r2, [r0, #44]
 4553 006c 294A     		ldr	r2, .L685+8
 4554 006e 0263     		str	r2, [r0, #48]
 4555 0070 2268     		ldr	r2, [r4]
 4556 0072 3832     		adds	r2, r2, #56
 4557 0074 FFF7FEFF 		bl	HAL_DMA_Start_IT
 4558 0078 0028     		cmp	r0, #0
 4559 007a D0D1     		bne	.L675
 4560 007c 2268     		ldr	r2, [r4]
 4561 007e D368     		ldr	r3, [r2, #12]
 4562 0080 43F48063 		orr	r3, r3, #1024
 4563 0084 22E0     		b	.L684
 4564              	.L673:
 4565 0086 E06A     		ldr	r0, [r4, #44]
 4566 0088 204A     		ldr	r2, .L685
 4567 008a 8262     		str	r2, [r0, #40]
 4568 008c 204A     		ldr	r2, .L685+4
 4569 008e C262     		str	r2, [r0, #44]
 4570 0090 204A     		ldr	r2, .L685+8
 4571 0092 0263     		str	r2, [r0, #48]
 4572 0094 2268     		ldr	r2, [r4]
 4573 0096 3C32     		adds	r2, r2, #60
 4574 0098 FFF7FEFF 		bl	HAL_DMA_Start_IT
 4575 009c 0028     		cmp	r0, #0
 4576 009e BED1     		bne	.L675
 4577 00a0 2268     		ldr	r2, [r4]
 4578 00a2 D368     		ldr	r3, [r2, #12]
 4579 00a4 43F40063 		orr	r3, r3, #2048
 4580 00a8 10E0     		b	.L684
 4581              	.L674:
 4582 00aa 206B     		ldr	r0, [r4, #48]
 4583 00ac 174A     		ldr	r2, .L685
 4584 00ae 8262     		str	r2, [r0, #40]
 4585 00b0 174A     		ldr	r2, .L685+4
 4586 00b2 C262     		str	r2, [r0, #44]
 4587 00b4 174A     		ldr	r2, .L685+8
 4588 00b6 0263     		str	r2, [r0, #48]
 4589 00b8 2268     		ldr	r2, [r4]
 4590 00ba 4032     		adds	r2, r2, #64
ARM GAS  /tmp/ccRVpOvn.s 			page 78


 4591 00bc FFF7FEFF 		bl	HAL_DMA_Start_IT
 4592 00c0 0028     		cmp	r0, #0
 4593 00c2 ACD1     		bne	.L675
 4594 00c4 2268     		ldr	r2, [r4]
 4595 00c6 D368     		ldr	r3, [r2, #12]
 4596 00c8 43F48053 		orr	r3, r3, #4096
 4597              	.L684:
 4598 00cc D360     		str	r3, [r2, #12]
 4599              	.L669:
 4600 00ce 0122     		movs	r2, #1
 4601 00d0 2068     		ldr	r0, [r4]
 4602 00d2 2946     		mov	r1, r5
 4603 00d4 FFF7FEFF 		bl	TIM_CCxChannelCmd
 4604 00d8 2368     		ldr	r3, [r4]
 4605 00da 0F4A     		ldr	r2, .L685+12
 4606 00dc 9342     		cmp	r3, r2
 4607 00de 0ED0     		beq	.L676
 4608 00e0 02F50062 		add	r2, r2, #2048
 4609 00e4 9342     		cmp	r3, r2
 4610 00e6 0AD0     		beq	.L676
 4611              	.L677:
 4612 00e8 9A68     		ldr	r2, [r3, #8]
 4613 00ea 0020     		movs	r0, #0
 4614 00ec 02F00702 		and	r2, r2, #7
 4615 00f0 062A     		cmp	r2, #6
 4616 00f2 1EBF     		ittt	ne
 4617 00f4 1A68     		ldrne	r2, [r3]
 4618 00f6 42F00102 		orrne	r2, r2, #1
 4619 00fa 1A60     		strne	r2, [r3]
 4620 00fc 38BD     		pop	{r3, r4, r5, pc}
 4621              	.L676:
 4622 00fe 5A6C     		ldr	r2, [r3, #68]
 4623 0100 42F40042 		orr	r2, r2, #32768
 4624 0104 5A64     		str	r2, [r3, #68]
 4625 0106 EFE7     		b	.L677
 4626              	.L683:
 4627 0108 38BD     		pop	{r3, r4, r5, pc}
 4628              	.L686:
 4629 010a 00BF     		.align	2
 4630              	.L685:
 4631 010c 00000000 		.word	TIM_DMADelayPulseCplt
 4632 0110 00000000 		.word	TIM_DMADelayPulseHalfCplt
 4633 0114 00000000 		.word	TIM_DMAError
 4634 0118 002C0140 		.word	1073818624
 4636              		.section	.text.HAL_TIM_PWM_Stop_DMA,"ax",%progbits
 4637              		.align	1
 4638              		.global	HAL_TIM_PWM_Stop_DMA
 4639              		.thumb
 4640              		.thumb_func
 4642              	HAL_TIM_PWM_Stop_DMA:
 4643              		@ args = 0, pretend = 0, frame = 0
 4644              		@ frame_needed = 0, uses_anonymous_args = 0
 4645 0000 38B5     		push	{r3, r4, r5, lr}
 4646 0002 0446     		mov	r4, r0
 4647 0004 0D46     		mov	r5, r1
 4648 0006 0C29     		cmp	r1, #12
 4649 0008 25D8     		bhi	.L688
ARM GAS  /tmp/ccRVpOvn.s 			page 79


 4650 000a DFE801F0 		tbb	[pc, r1]
 4651              	.L690:
 4652 000e 07       		.byte	(.L689-.L690)/2
 4653 000f 24       		.byte	(.L688-.L690)/2
 4654 0010 24       		.byte	(.L688-.L690)/2
 4655 0011 24       		.byte	(.L688-.L690)/2
 4656 0012 0E       		.byte	(.L691-.L690)/2
 4657 0013 24       		.byte	(.L688-.L690)/2
 4658 0014 24       		.byte	(.L688-.L690)/2
 4659 0015 24       		.byte	(.L688-.L690)/2
 4660 0016 15       		.byte	(.L692-.L690)/2
 4661 0017 24       		.byte	(.L688-.L690)/2
 4662 0018 24       		.byte	(.L688-.L690)/2
 4663 0019 24       		.byte	(.L688-.L690)/2
 4664 001a 1C       		.byte	(.L693-.L690)/2
 4665 001b 00       		.p2align 1
 4666              	.L689:
 4667 001c 0268     		ldr	r2, [r0]
 4668 001e 406A     		ldr	r0, [r0, #36]
 4669 0020 D368     		ldr	r3, [r2, #12]
 4670 0022 23F40073 		bic	r3, r3, #512
 4671 0026 D360     		str	r3, [r2, #12]
 4672 0028 13E0     		b	.L699
 4673              	.L691:
 4674 002a 0268     		ldr	r2, [r0]
 4675 002c 806A     		ldr	r0, [r0, #40]
 4676 002e D368     		ldr	r3, [r2, #12]
 4677 0030 23F48063 		bic	r3, r3, #1024
 4678 0034 D360     		str	r3, [r2, #12]
 4679 0036 0CE0     		b	.L699
 4680              	.L692:
 4681 0038 0268     		ldr	r2, [r0]
 4682 003a C06A     		ldr	r0, [r0, #44]
 4683 003c D368     		ldr	r3, [r2, #12]
 4684 003e 23F40063 		bic	r3, r3, #2048
 4685 0042 D360     		str	r3, [r2, #12]
 4686 0044 05E0     		b	.L699
 4687              	.L693:
 4688 0046 0268     		ldr	r2, [r0]
 4689 0048 006B     		ldr	r0, [r0, #48]
 4690 004a D368     		ldr	r3, [r2, #12]
 4691 004c 23F48053 		bic	r3, r3, #4096
 4692 0050 D360     		str	r3, [r2, #12]
 4693              	.L699:
 4694 0052 FFF7FEFF 		bl	HAL_DMA_Abort_IT
 4695              	.L688:
 4696 0056 0022     		movs	r2, #0
 4697 0058 2068     		ldr	r0, [r4]
 4698 005a 2946     		mov	r1, r5
 4699 005c FFF7FEFF 		bl	TIM_CCxChannelCmd
 4700 0060 2368     		ldr	r3, [r4]
 4701 0062 144A     		ldr	r2, .L700
 4702 0064 9342     		cmp	r3, r2
 4703 0066 03D0     		beq	.L694
 4704 0068 02F50062 		add	r2, r2, #2048
 4705 006c 9342     		cmp	r3, r2
 4706 006e 0DD1     		bne	.L695
ARM GAS  /tmp/ccRVpOvn.s 			page 80


 4707              	.L694:
 4708 0070 41F21112 		movw	r2, #4369
 4709 0074 196A     		ldr	r1, [r3, #32]
 4710 0076 0A40     		ands	r2, r2, r1
 4711 0078 42B9     		cbnz	r2, .L695
 4712 007a 40F24442 		movw	r2, #1092
 4713 007e 196A     		ldr	r1, [r3, #32]
 4714 0080 0A40     		ands	r2, r2, r1
 4715 0082 1AB9     		cbnz	r2, .L695
 4716 0084 5A6C     		ldr	r2, [r3, #68]
 4717 0086 22F40042 		bic	r2, r2, #32768
 4718 008a 5A64     		str	r2, [r3, #68]
 4719              	.L695:
 4720 008c 41F21112 		movw	r2, #4369
 4721 0090 196A     		ldr	r1, [r3, #32]
 4722 0092 0A40     		ands	r2, r2, r1
 4723 0094 42B9     		cbnz	r2, .L696
 4724 0096 40F24442 		movw	r2, #1092
 4725 009a 196A     		ldr	r1, [r3, #32]
 4726 009c 0A40     		ands	r2, r2, r1
 4727 009e 1AB9     		cbnz	r2, .L696
 4728 00a0 1A68     		ldr	r2, [r3]
 4729 00a2 22F00102 		bic	r2, r2, #1
 4730 00a6 1A60     		str	r2, [r3]
 4731              	.L696:
 4732 00a8 0123     		movs	r3, #1
 4733 00aa 84F83D30 		strb	r3, [r4, #61]
 4734 00ae 0020     		movs	r0, #0
 4735 00b0 38BD     		pop	{r3, r4, r5, pc}
 4736              	.L701:
 4737 00b2 00BF     		.align	2
 4738              	.L700:
 4739 00b4 002C0140 		.word	1073818624
 4741              		.section	.text.HAL_TIM_IC_Start,"ax",%progbits
 4742              		.align	1
 4743              		.global	HAL_TIM_IC_Start
 4744              		.thumb
 4745              		.thumb_func
 4747              	HAL_TIM_IC_Start:
 4748              		@ args = 0, pretend = 0, frame = 0
 4749              		@ frame_needed = 0, uses_anonymous_args = 0
 4750 0000 10B5     		push	{r4, lr}
 4751 0002 0446     		mov	r4, r0
 4752 0004 0122     		movs	r2, #1
 4753 0006 0068     		ldr	r0, [r0]
 4754 0008 FFF7FEFF 		bl	TIM_CCxChannelCmd
 4755 000c 2368     		ldr	r3, [r4]
 4756 000e 0020     		movs	r0, #0
 4757 0010 9A68     		ldr	r2, [r3, #8]
 4758 0012 02F00702 		and	r2, r2, #7
 4759 0016 062A     		cmp	r2, #6
 4760 0018 1EBF     		ittt	ne
 4761 001a 1A68     		ldrne	r2, [r3]
 4762 001c 42F00102 		orrne	r2, r2, #1
 4763 0020 1A60     		strne	r2, [r3]
 4764 0022 10BD     		pop	{r4, pc}
 4766              		.section	.text.HAL_TIM_IC_Stop,"ax",%progbits
ARM GAS  /tmp/ccRVpOvn.s 			page 81


 4767              		.align	1
 4768              		.global	HAL_TIM_IC_Stop
 4769              		.thumb
 4770              		.thumb_func
 4772              	HAL_TIM_IC_Stop:
 4773              		@ args = 0, pretend = 0, frame = 0
 4774              		@ frame_needed = 0, uses_anonymous_args = 0
 4775 0000 10B5     		push	{r4, lr}
 4776 0002 0446     		mov	r4, r0
 4777 0004 0022     		movs	r2, #0
 4778 0006 0068     		ldr	r0, [r0]
 4779 0008 FFF7FEFF 		bl	TIM_CCxChannelCmd
 4780 000c 41F21112 		movw	r2, #4369
 4781 0010 2368     		ldr	r3, [r4]
 4782 0012 196A     		ldr	r1, [r3, #32]
 4783 0014 0A40     		ands	r2, r2, r1
 4784 0016 42B9     		cbnz	r2, .L708
 4785 0018 40F24442 		movw	r2, #1092
 4786 001c 196A     		ldr	r1, [r3, #32]
 4787 001e 0A40     		ands	r2, r2, r1
 4788 0020 1AB9     		cbnz	r2, .L708
 4789 0022 1A68     		ldr	r2, [r3]
 4790 0024 22F00102 		bic	r2, r2, #1
 4791 0028 1A60     		str	r2, [r3]
 4792              	.L708:
 4793 002a 0020     		movs	r0, #0
 4794 002c 10BD     		pop	{r4, pc}
 4796              		.section	.text.HAL_TIM_IC_Start_IT,"ax",%progbits
 4797              		.align	1
 4798              		.global	HAL_TIM_IC_Start_IT
 4799              		.thumb
 4800              		.thumb_func
 4802              	HAL_TIM_IC_Start_IT:
 4803              		@ args = 0, pretend = 0, frame = 0
 4804              		@ frame_needed = 0, uses_anonymous_args = 0
 4805 0000 10B5     		push	{r4, lr}
 4806 0002 0446     		mov	r4, r0
 4807 0004 0C29     		cmp	r1, #12
 4808 0006 1CD8     		bhi	.L710
 4809 0008 DFE801F0 		tbb	[pc, r1]
 4810              	.L712:
 4811 000c 07       		.byte	(.L711-.L712)/2
 4812 000d 1B       		.byte	(.L710-.L712)/2
 4813 000e 1B       		.byte	(.L710-.L712)/2
 4814 000f 1B       		.byte	(.L710-.L712)/2
 4815 0010 0C       		.byte	(.L713-.L712)/2
 4816 0011 1B       		.byte	(.L710-.L712)/2
 4817 0012 1B       		.byte	(.L710-.L712)/2
 4818 0013 1B       		.byte	(.L710-.L712)/2
 4819 0014 11       		.byte	(.L714-.L712)/2
 4820 0015 1B       		.byte	(.L710-.L712)/2
 4821 0016 1B       		.byte	(.L710-.L712)/2
 4822 0017 1B       		.byte	(.L710-.L712)/2
 4823 0018 16       		.byte	(.L715-.L712)/2
 4824 0019 00       		.p2align 1
 4825              	.L711:
 4826 001a 0268     		ldr	r2, [r0]
ARM GAS  /tmp/ccRVpOvn.s 			page 82


 4827 001c D368     		ldr	r3, [r2, #12]
 4828 001e 43F00203 		orr	r3, r3, #2
 4829 0022 0DE0     		b	.L720
 4830              	.L713:
 4831 0024 0268     		ldr	r2, [r0]
 4832 0026 D368     		ldr	r3, [r2, #12]
 4833 0028 43F00403 		orr	r3, r3, #4
 4834 002c 08E0     		b	.L720
 4835              	.L714:
 4836 002e 0268     		ldr	r2, [r0]
 4837 0030 D368     		ldr	r3, [r2, #12]
 4838 0032 43F00803 		orr	r3, r3, #8
 4839 0036 03E0     		b	.L720
 4840              	.L715:
 4841 0038 0268     		ldr	r2, [r0]
 4842 003a D368     		ldr	r3, [r2, #12]
 4843 003c 43F01003 		orr	r3, r3, #16
 4844              	.L720:
 4845 0040 D360     		str	r3, [r2, #12]
 4846              	.L710:
 4847 0042 2068     		ldr	r0, [r4]
 4848 0044 0122     		movs	r2, #1
 4849 0046 FFF7FEFF 		bl	TIM_CCxChannelCmd
 4850 004a 2368     		ldr	r3, [r4]
 4851 004c 0020     		movs	r0, #0
 4852 004e 9A68     		ldr	r2, [r3, #8]
 4853 0050 02F00702 		and	r2, r2, #7
 4854 0054 062A     		cmp	r2, #6
 4855 0056 1EBF     		ittt	ne
 4856 0058 1A68     		ldrne	r2, [r3]
 4857 005a 42F00102 		orrne	r2, r2, #1
 4858 005e 1A60     		strne	r2, [r3]
 4859 0060 10BD     		pop	{r4, pc}
 4861              		.section	.text.HAL_TIM_IC_Stop_IT,"ax",%progbits
 4862              		.align	1
 4863              		.global	HAL_TIM_IC_Stop_IT
 4864              		.thumb
 4865              		.thumb_func
 4867              	HAL_TIM_IC_Stop_IT:
 4868              		@ args = 0, pretend = 0, frame = 0
 4869              		@ frame_needed = 0, uses_anonymous_args = 0
 4870 0000 10B5     		push	{r4, lr}
 4871 0002 0446     		mov	r4, r0
 4872 0004 0C29     		cmp	r1, #12
 4873 0006 1CD8     		bhi	.L722
 4874 0008 DFE801F0 		tbb	[pc, r1]
 4875              	.L724:
 4876 000c 07       		.byte	(.L723-.L724)/2
 4877 000d 1B       		.byte	(.L722-.L724)/2
 4878 000e 1B       		.byte	(.L722-.L724)/2
 4879 000f 1B       		.byte	(.L722-.L724)/2
 4880 0010 0C       		.byte	(.L725-.L724)/2
 4881 0011 1B       		.byte	(.L722-.L724)/2
 4882 0012 1B       		.byte	(.L722-.L724)/2
 4883 0013 1B       		.byte	(.L722-.L724)/2
 4884 0014 11       		.byte	(.L726-.L724)/2
 4885 0015 1B       		.byte	(.L722-.L724)/2
ARM GAS  /tmp/ccRVpOvn.s 			page 83


 4886 0016 1B       		.byte	(.L722-.L724)/2
 4887 0017 1B       		.byte	(.L722-.L724)/2
 4888 0018 16       		.byte	(.L727-.L724)/2
 4889 0019 00       		.p2align 1
 4890              	.L723:
 4891 001a 0268     		ldr	r2, [r0]
 4892 001c D368     		ldr	r3, [r2, #12]
 4893 001e 23F00203 		bic	r3, r3, #2
 4894 0022 0DE0     		b	.L729
 4895              	.L725:
 4896 0024 0268     		ldr	r2, [r0]
 4897 0026 D368     		ldr	r3, [r2, #12]
 4898 0028 23F00403 		bic	r3, r3, #4
 4899 002c 08E0     		b	.L729
 4900              	.L726:
 4901 002e 0268     		ldr	r2, [r0]
 4902 0030 D368     		ldr	r3, [r2, #12]
 4903 0032 23F00803 		bic	r3, r3, #8
 4904 0036 03E0     		b	.L729
 4905              	.L727:
 4906 0038 0268     		ldr	r2, [r0]
 4907 003a D368     		ldr	r3, [r2, #12]
 4908 003c 23F01003 		bic	r3, r3, #16
 4909              	.L729:
 4910 0040 D360     		str	r3, [r2, #12]
 4911              	.L722:
 4912 0042 0022     		movs	r2, #0
 4913 0044 2068     		ldr	r0, [r4]
 4914 0046 FFF7FEFF 		bl	TIM_CCxChannelCmd
 4915 004a 41F21112 		movw	r2, #4369
 4916 004e 2368     		ldr	r3, [r4]
 4917 0050 196A     		ldr	r1, [r3, #32]
 4918 0052 0A40     		ands	r2, r2, r1
 4919 0054 42B9     		cbnz	r2, .L728
 4920 0056 40F24442 		movw	r2, #1092
 4921 005a 196A     		ldr	r1, [r3, #32]
 4922 005c 0A40     		ands	r2, r2, r1
 4923 005e 1AB9     		cbnz	r2, .L728
 4924 0060 1A68     		ldr	r2, [r3]
 4925 0062 22F00102 		bic	r2, r2, #1
 4926 0066 1A60     		str	r2, [r3]
 4927              	.L728:
 4928 0068 0020     		movs	r0, #0
 4929 006a 10BD     		pop	{r4, pc}
 4931              		.section	.text.HAL_TIM_IC_Start_DMA,"ax",%progbits
 4932              		.align	1
 4933              		.global	HAL_TIM_IC_Start_DMA
 4934              		.thumb
 4935              		.thumb_func
 4937              	HAL_TIM_IC_Start_DMA:
 4938              		@ args = 0, pretend = 0, frame = 0
 4939              		@ frame_needed = 0, uses_anonymous_args = 0
 4940 0000 38B5     		push	{r3, r4, r5, lr}
 4941 0002 0446     		mov	r4, r0
 4942 0004 90F83D00 		ldrb	r0, [r0, #61]	@ zero_extendqisi2
 4943 0008 0D46     		mov	r5, r1
 4944 000a C0B2     		uxtb	r0, r0
ARM GAS  /tmp/ccRVpOvn.s 			page 84


 4945 000c 0228     		cmp	r0, #2
 4946 000e 6DD0     		beq	.L731
 4947 0010 94F83D10 		ldrb	r1, [r4, #61]	@ zero_extendqisi2
 4948 0014 0129     		cmp	r1, #1
 4949 0016 06D1     		bne	.L732
 4950 0018 12B9     		cbnz	r2, .L733
 4951 001a 0BB1     		cbz	r3, .L733
 4952              	.L740:
 4953 001c 0120     		movs	r0, #1
 4954 001e 38BD     		pop	{r3, r4, r5, pc}
 4955              	.L733:
 4956 0020 0221     		movs	r1, #2
 4957 0022 84F83D10 		strb	r1, [r4, #61]
 4958              	.L732:
 4959 0026 0C2D     		cmp	r5, #12
 4960 0028 50D8     		bhi	.L734
 4961 002a DFE805F0 		tbb	[pc, r5]
 4962              	.L736:
 4963 002e 07       		.byte	(.L735-.L736)/2
 4964 002f 4F       		.byte	(.L734-.L736)/2
 4965 0030 4F       		.byte	(.L734-.L736)/2
 4966 0031 4F       		.byte	(.L734-.L736)/2
 4967 0032 19       		.byte	(.L737-.L736)/2
 4968 0033 4F       		.byte	(.L734-.L736)/2
 4969 0034 4F       		.byte	(.L734-.L736)/2
 4970 0035 4F       		.byte	(.L734-.L736)/2
 4971 0036 2B       		.byte	(.L738-.L736)/2
 4972 0037 4F       		.byte	(.L734-.L736)/2
 4973 0038 4F       		.byte	(.L734-.L736)/2
 4974 0039 4F       		.byte	(.L734-.L736)/2
 4975 003a 3D       		.byte	(.L739-.L736)/2
 4976 003b 00       		.p2align 1
 4977              	.L735:
 4978 003c 606A     		ldr	r0, [r4, #36]
 4979 003e 2C49     		ldr	r1, .L747
 4980 0040 8162     		str	r1, [r0, #40]
 4981 0042 2C49     		ldr	r1, .L747+4
 4982 0044 C162     		str	r1, [r0, #44]
 4983 0046 2C49     		ldr	r1, .L747+8
 4984 0048 0163     		str	r1, [r0, #48]
 4985 004a 2168     		ldr	r1, [r4]
 4986 004c 3431     		adds	r1, r1, #52
 4987 004e FFF7FEFF 		bl	HAL_DMA_Start_IT
 4988 0052 0028     		cmp	r0, #0
 4989 0054 E2D1     		bne	.L740
 4990 0056 2268     		ldr	r2, [r4]
 4991 0058 D368     		ldr	r3, [r2, #12]
 4992 005a 43F40073 		orr	r3, r3, #512
 4993 005e 34E0     		b	.L746
 4994              	.L737:
 4995 0060 A06A     		ldr	r0, [r4, #40]
 4996 0062 2349     		ldr	r1, .L747
 4997 0064 8162     		str	r1, [r0, #40]
 4998 0066 2349     		ldr	r1, .L747+4
 4999 0068 C162     		str	r1, [r0, #44]
 5000 006a 2349     		ldr	r1, .L747+8
 5001 006c 0163     		str	r1, [r0, #48]
ARM GAS  /tmp/ccRVpOvn.s 			page 85


 5002 006e 2168     		ldr	r1, [r4]
 5003 0070 3831     		adds	r1, r1, #56
 5004 0072 FFF7FEFF 		bl	HAL_DMA_Start_IT
 5005 0076 0028     		cmp	r0, #0
 5006 0078 D0D1     		bne	.L740
 5007 007a 2268     		ldr	r2, [r4]
 5008 007c D368     		ldr	r3, [r2, #12]
 5009 007e 43F48063 		orr	r3, r3, #1024
 5010 0082 22E0     		b	.L746
 5011              	.L738:
 5012 0084 E06A     		ldr	r0, [r4, #44]
 5013 0086 1A49     		ldr	r1, .L747
 5014 0088 8162     		str	r1, [r0, #40]
 5015 008a 1A49     		ldr	r1, .L747+4
 5016 008c C162     		str	r1, [r0, #44]
 5017 008e 1A49     		ldr	r1, .L747+8
 5018 0090 0163     		str	r1, [r0, #48]
 5019 0092 2168     		ldr	r1, [r4]
 5020 0094 3C31     		adds	r1, r1, #60
 5021 0096 FFF7FEFF 		bl	HAL_DMA_Start_IT
 5022 009a 0028     		cmp	r0, #0
 5023 009c BED1     		bne	.L740
 5024 009e 2268     		ldr	r2, [r4]
 5025 00a0 D368     		ldr	r3, [r2, #12]
 5026 00a2 43F40063 		orr	r3, r3, #2048
 5027 00a6 10E0     		b	.L746
 5028              	.L739:
 5029 00a8 206B     		ldr	r0, [r4, #48]
 5030 00aa 1149     		ldr	r1, .L747
 5031 00ac 8162     		str	r1, [r0, #40]
 5032 00ae 1149     		ldr	r1, .L747+4
 5033 00b0 C162     		str	r1, [r0, #44]
 5034 00b2 1149     		ldr	r1, .L747+8
 5035 00b4 0163     		str	r1, [r0, #48]
 5036 00b6 2168     		ldr	r1, [r4]
 5037 00b8 4031     		adds	r1, r1, #64
 5038 00ba FFF7FEFF 		bl	HAL_DMA_Start_IT
 5039 00be 0028     		cmp	r0, #0
 5040 00c0 ACD1     		bne	.L740
 5041 00c2 2268     		ldr	r2, [r4]
 5042 00c4 D368     		ldr	r3, [r2, #12]
 5043 00c6 43F48053 		orr	r3, r3, #4096
 5044              	.L746:
 5045 00ca D360     		str	r3, [r2, #12]
 5046              	.L734:
 5047 00cc 2068     		ldr	r0, [r4]
 5048 00ce 0122     		movs	r2, #1
 5049 00d0 2946     		mov	r1, r5
 5050 00d2 FFF7FEFF 		bl	TIM_CCxChannelCmd
 5051 00d6 2368     		ldr	r3, [r4]
 5052 00d8 0020     		movs	r0, #0
 5053 00da 9A68     		ldr	r2, [r3, #8]
 5054 00dc 02F00702 		and	r2, r2, #7
 5055 00e0 062A     		cmp	r2, #6
 5056 00e2 1EBF     		ittt	ne
 5057 00e4 1A68     		ldrne	r2, [r3]
 5058 00e6 42F00102 		orrne	r2, r2, #1
ARM GAS  /tmp/ccRVpOvn.s 			page 86


 5059 00ea 1A60     		strne	r2, [r3]
 5060              	.L731:
 5061 00ec 38BD     		pop	{r3, r4, r5, pc}
 5062              	.L748:
 5063 00ee 00BF     		.align	2
 5064              	.L747:
 5065 00f0 00000000 		.word	TIM_DMACaptureCplt
 5066 00f4 00000000 		.word	TIM_DMACaptureHalfCplt
 5067 00f8 00000000 		.word	TIM_DMAError
 5069              		.section	.text.HAL_TIM_IC_Stop_DMA,"ax",%progbits
 5070              		.align	1
 5071              		.global	HAL_TIM_IC_Stop_DMA
 5072              		.thumb
 5073              		.thumb_func
 5075              	HAL_TIM_IC_Stop_DMA:
 5076              		@ args = 0, pretend = 0, frame = 0
 5077              		@ frame_needed = 0, uses_anonymous_args = 0
 5078 0000 38B5     		push	{r3, r4, r5, lr}
 5079 0002 0446     		mov	r4, r0
 5080 0004 0D46     		mov	r5, r1
 5081 0006 0C29     		cmp	r1, #12
 5082 0008 25D8     		bhi	.L750
 5083 000a DFE801F0 		tbb	[pc, r1]
 5084              	.L752:
 5085 000e 07       		.byte	(.L751-.L752)/2
 5086 000f 24       		.byte	(.L750-.L752)/2
 5087 0010 24       		.byte	(.L750-.L752)/2
 5088 0011 24       		.byte	(.L750-.L752)/2
 5089 0012 0E       		.byte	(.L753-.L752)/2
 5090 0013 24       		.byte	(.L750-.L752)/2
 5091 0014 24       		.byte	(.L750-.L752)/2
 5092 0015 24       		.byte	(.L750-.L752)/2
 5093 0016 15       		.byte	(.L754-.L752)/2
 5094 0017 24       		.byte	(.L750-.L752)/2
 5095 0018 24       		.byte	(.L750-.L752)/2
 5096 0019 24       		.byte	(.L750-.L752)/2
 5097 001a 1C       		.byte	(.L755-.L752)/2
 5098 001b 00       		.p2align 1
 5099              	.L751:
 5100 001c 0268     		ldr	r2, [r0]
 5101 001e 406A     		ldr	r0, [r0, #36]
 5102 0020 D368     		ldr	r3, [r2, #12]
 5103 0022 23F40073 		bic	r3, r3, #512
 5104 0026 D360     		str	r3, [r2, #12]
 5105 0028 13E0     		b	.L757
 5106              	.L753:
 5107 002a 0268     		ldr	r2, [r0]
 5108 002c 806A     		ldr	r0, [r0, #40]
 5109 002e D368     		ldr	r3, [r2, #12]
 5110 0030 23F48063 		bic	r3, r3, #1024
 5111 0034 D360     		str	r3, [r2, #12]
 5112 0036 0CE0     		b	.L757
 5113              	.L754:
 5114 0038 0268     		ldr	r2, [r0]
 5115 003a C06A     		ldr	r0, [r0, #44]
 5116 003c D368     		ldr	r3, [r2, #12]
 5117 003e 23F40063 		bic	r3, r3, #2048
ARM GAS  /tmp/ccRVpOvn.s 			page 87


 5118 0042 D360     		str	r3, [r2, #12]
 5119 0044 05E0     		b	.L757
 5120              	.L755:
 5121 0046 0268     		ldr	r2, [r0]
 5122 0048 006B     		ldr	r0, [r0, #48]
 5123 004a D368     		ldr	r3, [r2, #12]
 5124 004c 23F48053 		bic	r3, r3, #4096
 5125 0050 D360     		str	r3, [r2, #12]
 5126              	.L757:
 5127 0052 FFF7FEFF 		bl	HAL_DMA_Abort_IT
 5128              	.L750:
 5129 0056 2946     		mov	r1, r5
 5130 0058 0022     		movs	r2, #0
 5131 005a 2068     		ldr	r0, [r4]
 5132 005c FFF7FEFF 		bl	TIM_CCxChannelCmd
 5133 0060 41F21112 		movw	r2, #4369
 5134 0064 2368     		ldr	r3, [r4]
 5135 0066 196A     		ldr	r1, [r3, #32]
 5136 0068 0A40     		ands	r2, r2, r1
 5137 006a 42B9     		cbnz	r2, .L756
 5138 006c 40F24442 		movw	r2, #1092
 5139 0070 196A     		ldr	r1, [r3, #32]
 5140 0072 0A40     		ands	r2, r2, r1
 5141 0074 1AB9     		cbnz	r2, .L756
 5142 0076 1A68     		ldr	r2, [r3]
 5143 0078 22F00102 		bic	r2, r2, #1
 5144 007c 1A60     		str	r2, [r3]
 5145              	.L756:
 5146 007e 0123     		movs	r3, #1
 5147 0080 84F83D30 		strb	r3, [r4, #61]
 5148 0084 0020     		movs	r0, #0
 5149 0086 38BD     		pop	{r3, r4, r5, pc}
 5151              		.ident	"GCC: (15:4.9.3+svn231177-1) 4.9.3 20150529 (prerelease)"
ARM GAS  /tmp/ccRVpOvn.s 			page 88

