ARM GAS  /tmp/cc9OaTuY.s 			page 1


   1              		.syntax unified
   2              		.cpu cortex-m3
   3              		.fpu softvfp
   4              		.eabi_attribute 20, 1
   5              		.eabi_attribute 21, 1
   6              		.eabi_attribute 23, 3
   7              		.eabi_attribute 24, 1
   8              		.eabi_attribute 25, 1
   9              		.eabi_attribute 26, 1
  10              		.eabi_attribute 30, 4
  11              		.eabi_attribute 34, 1
  12              		.eabi_attribute 18, 4
  13              		.thumb
  14              		.file	"stm32f1xx_hal_rcc_ex.c"
  15              		.section	.text.HAL_RCCEx_PeriphCLKConfig,"ax",%progbits
  16              		.align	1
  17              		.global	HAL_RCCEx_PeriphCLKConfig
  18              		.thumb
  19              		.thumb_func
  21              	HAL_RCCEx_PeriphCLKConfig:
  22              		@ args = 0, pretend = 0, frame = 8
  23              		@ frame_needed = 0, uses_anonymous_args = 0
  24 0000 0368     		ldr	r3, [r0]
  25 0002 F7B5     		push	{r0, r1, r2, r4, r5, r6, r7, lr}
  26 0004 DA07     		lsls	r2, r3, #31
  27 0006 0546     		mov	r5, r0
  28 0008 57D5     		bpl	.L3
  29 000a 384C     		ldr	r4, .L29
  30 000c E369     		ldr	r3, [r4, #28]
  31 000e DB00     		lsls	r3, r3, #3
  32 0010 5FBF     		itttt	pl
  33 0012 E369     		ldrpl	r3, [r4, #28]
  34 0014 0126     		movpl	r6, #1
  35 0016 43F08053 		orrpl	r3, r3, #268435456
  36 001a E361     		strpl	r3, [r4, #28]
  37 001c 57BF     		itett	pl
  38 001e E369     		ldrpl	r3, [r4, #28]
  39 0020 0026     		movmi	r6, #0
  40 0022 03F08053 		andpl	r3, r3, #268435456
  41 0026 0193     		strpl	r3, [sp, #4]
  42 0028 58BF     		it	pl
  43 002a 019B     		ldrpl	r3, [sp, #4]
  44 002c 304B     		ldr	r3, .L29+4
  45 002e 1A68     		ldr	r2, [r3]
  46 0030 D705     		lsls	r7, r2, #23
  47 0032 05D5     		bpl	.L5
  48              	.L11:
  49 0034 236A     		ldr	r3, [r4, #32]
  50 0036 2D49     		ldr	r1, .L29
  51 0038 13F44073 		ands	r3, r3, #768
  52 003c 12D1     		bne	.L6
  53 003e 16E0     		b	.L7
  54              	.L5:
  55 0040 1A68     		ldr	r2, [r3]
  56 0042 42F48072 		orr	r2, r2, #256
  57 0046 1A60     		str	r2, [r3]
  58 0048 FFF7FEFF 		bl	HAL_GetTick
ARM GAS  /tmp/cc9OaTuY.s 			page 2


  59 004c 0746     		mov	r7, r0
  60              	.L8:
  61 004e 284B     		ldr	r3, .L29+4
  62 0050 1B68     		ldr	r3, [r3]
  63 0052 D805     		lsls	r0, r3, #23
  64 0054 EED4     		bmi	.L11
  65 0056 FFF7FEFF 		bl	HAL_GetTick
  66 005a C01B     		subs	r0, r0, r7
  67 005c 6428     		cmp	r0, #100
  68 005e F6D9     		bls	.L8
  69              	.L15:
  70 0060 0320     		movs	r0, #3
  71 0062 40E0     		b	.L9
  72              	.L6:
  73 0064 6A68     		ldr	r2, [r5, #4]
  74 0066 02F44072 		and	r2, r2, #768
  75 006a 9342     		cmp	r3, r2
  76 006c 0CD1     		bne	.L28
  77              	.L7:
  78 006e 236A     		ldr	r3, [r4, #32]
  79 0070 1E49     		ldr	r1, .L29
  80 0072 23F44072 		bic	r2, r3, #768
  81 0076 6B68     		ldr	r3, [r5, #4]
  82 0078 1343     		orrs	r3, r3, r2
  83 007a 2362     		str	r3, [r4, #32]
  84 007c EEB1     		cbz	r6, .L3
  85 007e CB69     		ldr	r3, [r1, #28]
  86 0080 23F08053 		bic	r3, r3, #268435456
  87 0084 CB61     		str	r3, [r1, #28]
  88 0086 18E0     		b	.L3
  89              	.L28:
  90 0088 0B6A     		ldr	r3, [r1, #32]
  91 008a 1A4A     		ldr	r2, .L29+8
  92 008c 0127     		movs	r7, #1
  93 008e 1760     		str	r7, [r2]
  94 0090 23F44070 		bic	r0, r3, #768
  95 0094 0027     		movs	r7, #0
  96 0096 1760     		str	r7, [r2]
  97 0098 0862     		str	r0, [r1, #32]
  98 009a D907     		lsls	r1, r3, #31
  99 009c E7D5     		bpl	.L7
 100 009e FFF7FEFF 		bl	HAL_GetTick
 101 00a2 0746     		mov	r7, r0
 102              	.L14:
 103 00a4 236A     		ldr	r3, [r4, #32]
 104 00a6 9A07     		lsls	r2, r3, #30
 105 00a8 E1D4     		bmi	.L7
 106 00aa FFF7FEFF 		bl	HAL_GetTick
 107 00ae 41F28833 		movw	r3, #5000
 108 00b2 C01B     		subs	r0, r0, r7
 109 00b4 9842     		cmp	r0, r3
 110 00b6 F5D9     		bls	.L14
 111 00b8 D2E7     		b	.L15
 112              	.L3:
 113 00ba 2868     		ldr	r0, [r5]
 114 00bc 8307     		lsls	r3, r0, #30
 115 00be 41BF     		itttt	mi
ARM GAS  /tmp/cc9OaTuY.s 			page 3


 116 00c0 0A49     		ldrmi	r1, .L29
 117 00c2 4B68     		ldrmi	r3, [r1, #4]
 118 00c4 23F44042 		bicmi	r2, r3, #49152
 119 00c8 AB68     		ldrmi	r3, [r5, #8]
 120 00ca 44BF     		itt	mi
 121 00cc 1343     		orrmi	r3, r3, r2
 122 00ce 4B60     		strmi	r3, [r1, #4]
 123 00d0 10F01000 		ands	r0, r0, #16
 124 00d4 07D0     		beq	.L9
 125 00d6 0549     		ldr	r1, .L29
 126 00d8 0020     		movs	r0, #0
 127 00da 4B68     		ldr	r3, [r1, #4]
 128 00dc 23F48002 		bic	r2, r3, #4194304
 129 00e0 6B69     		ldr	r3, [r5, #20]
 130 00e2 1343     		orrs	r3, r3, r2
 131 00e4 4B60     		str	r3, [r1, #4]
 132              	.L9:
 133 00e6 03B0     		add	sp, sp, #12
 134              		@ sp needed
 135 00e8 F0BD     		pop	{r4, r5, r6, r7, pc}
 136              	.L30:
 137 00ea 00BF     		.align	2
 138              	.L29:
 139 00ec 00100240 		.word	1073876992
 140 00f0 00700040 		.word	1073770496
 141 00f4 40044242 		.word	1111622720
 143              		.section	.text.HAL_RCCEx_GetPeriphCLKConfig,"ax",%progbits
 144              		.align	1
 145              		.global	HAL_RCCEx_GetPeriphCLKConfig
 146              		.thumb
 147              		.thumb_func
 149              	HAL_RCCEx_GetPeriphCLKConfig:
 150              		@ args = 0, pretend = 0, frame = 0
 151              		@ frame_needed = 0, uses_anonymous_args = 0
 152              		@ link register save eliminated.
 153 0000 094B     		ldr	r3, .L32
 154 0002 1A6A     		ldr	r2, [r3, #32]
 155 0004 02F44072 		and	r2, r2, #768
 156 0008 4260     		str	r2, [r0, #4]
 157 000a 5A68     		ldr	r2, [r3, #4]
 158 000c 02F44042 		and	r2, r2, #49152
 159 0010 8260     		str	r2, [r0, #8]
 160 0012 0022     		movs	r2, #0
 161 0014 C260     		str	r2, [r0, #12]
 162 0016 0261     		str	r2, [r0, #16]
 163 0018 1F22     		movs	r2, #31
 164 001a 0260     		str	r2, [r0]
 165 001c 5B68     		ldr	r3, [r3, #4]
 166 001e 03F48003 		and	r3, r3, #4194304
 167 0022 4361     		str	r3, [r0, #20]
 168 0024 7047     		bx	lr
 169              	.L33:
 170 0026 00BF     		.align	2
 171              	.L32:
 172 0028 00100240 		.word	1073876992
 174              		.section	.text.HAL_RCCEx_GetPeriphCLKFreq,"ax",%progbits
 175              		.align	1
ARM GAS  /tmp/cc9OaTuY.s 			page 4


 176              		.global	HAL_RCCEx_GetPeriphCLKFreq
 177              		.thumb
 178              		.thumb_func
 180              	HAL_RCCEx_GetPeriphCLKFreq:
 181              		@ args = 0, pretend = 0, frame = 24
 182              		@ frame_needed = 0, uses_anonymous_args = 0
 183 0000 3A4B     		ldr	r3, .L56
 184 0002 F0B5     		push	{r4, r5, r6, r7, lr}
 185 0004 03F11006 		add	r6, r3, #16
 186 0008 0246     		mov	r2, r0
 187 000a 3746     		mov	r7, r6
 188 000c 87B0     		sub	sp, sp, #28
 189 000e 02AD     		add	r5, sp, #8
 190              	.L35:
 191 0010 2C46     		mov	r4, r5
 192 0012 1868     		ldr	r0, [r3]	@ unaligned
 193 0014 5968     		ldr	r1, [r3, #4]	@ unaligned
 194 0016 0833     		adds	r3, r3, #8
 195 0018 03C4     		stmia	r4!, {r0, r1}
 196 001a B342     		cmp	r3, r6
 197 001c 2546     		mov	r5, r4
 198 001e F7D1     		bne	.L35
 199 0020 3B88     		ldrh	r3, [r7]	@ unaligned
 200 0022 501E     		subs	r0, r2, #1
 201 0024 ADF80430 		strh	r3, [sp, #4]	@ unaligned
 202 0028 0F28     		cmp	r0, #15
 203 002a 5CD8     		bhi	.L50
 204 002c DFE800F0 		tbb	[pc, r0]
 205              	.L38:
 206 0030 30       		.byte	(.L37-.L38)/2
 207 0031 4D       		.byte	(.L39-.L38)/2
 208 0032 5B       		.byte	(.L50-.L38)/2
 209 0033 2B       		.byte	(.L41-.L38)/2
 210 0034 5B       		.byte	(.L50-.L38)/2
 211 0035 5B       		.byte	(.L50-.L38)/2
 212 0036 5B       		.byte	(.L50-.L38)/2
 213 0037 2B       		.byte	(.L41-.L38)/2
 214 0038 5B       		.byte	(.L50-.L38)/2
 215 0039 5B       		.byte	(.L50-.L38)/2
 216 003a 5B       		.byte	(.L50-.L38)/2
 217 003b 5B       		.byte	(.L50-.L38)/2
 218 003c 5B       		.byte	(.L50-.L38)/2
 219 003d 5B       		.byte	(.L50-.L38)/2
 220 003e 5B       		.byte	(.L50-.L38)/2
 221 003f 08       		.byte	(.L42-.L38)/2
 222              		.p2align 1
 223              	.L42:
 224 0040 2B4B     		ldr	r3, .L56+4
 225 0042 5968     		ldr	r1, [r3, #4]
 226 0044 1868     		ldr	r0, [r3]
 227 0046 1A46     		mov	r2, r3
 228 0048 10F08070 		ands	r0, r0, #16777216
 229 004c 4CD0     		beq	.L36
 230 004e C1F38343 		ubfx	r3, r1, #18, #4
 231 0052 C903     		lsls	r1, r1, #15
 232 0054 48BF     		it	mi
 233 0056 5168     		ldrmi	r1, [r2, #4]
ARM GAS  /tmp/cc9OaTuY.s 			page 5


 234 0058 06A8     		add	r0, sp, #24
 235 005a 44BF     		itt	mi
 236 005c C1F34041 		ubfxmi	r1, r1, #17, #1
 237 0060 0918     		addmi	r1, r1, r0
 238 0062 0344     		add	r3, r3, r0
 239 0064 44BF     		itt	mi
 240 0066 11F8140C 		ldrbmi	r0, [r1, #-20]	@ zero_extendqisi2
 241 006a 2249     		ldrmi	r1, .L56+8
 242 006c 13F8103C 		ldrb	r3, [r3, #-16]	@ zero_extendqisi2
 243 0070 4CBF     		ite	mi
 244 0072 B1FBF0F0 		udivmi	r0, r1, r0
 245 0076 2048     		ldrpl	r0, .L56+12
 246 0078 5843     		muls	r0, r3, r0
 247 007a 5368     		ldr	r3, [r2, #4]
 248 007c 5B02     		lsls	r3, r3, #9
 249 007e 33D4     		bmi	.L36
 250 0080 4000     		lsls	r0, r0, #1
 251 0082 0323     		movs	r3, #3
 252 0084 29E0     		b	.L54
 253              	.L41:
 254 0086 07B0     		add	sp, sp, #28
 255              		@ sp needed
 256 0088 BDE8F040 		pop	{r4, r5, r6, r7, lr}
 257 008c FFF7FEBF 		b	HAL_RCC_GetSysClockFreq
 258              	.L37:
 259 0090 40F20231 		movw	r1, #770
 260 0094 164A     		ldr	r2, .L56+4
 261 0096 136A     		ldr	r3, [r2, #32]
 262 0098 1940     		ands	r1, r1, r3
 263 009a B1F5817F 		cmp	r1, #258
 264 009e 1FD0     		beq	.L48
 265 00a0 03F44073 		and	r3, r3, #768
 266 00a4 B3F5007F 		cmp	r3, #512
 267 00a8 05D1     		bne	.L45
 268 00aa 536A     		ldr	r3, [r2, #36]
 269 00ac 49F64040 		movw	r0, #40000
 270 00b0 13F0020F 		tst	r3, #2
 271 00b4 06E0     		b	.L55
 272              	.L45:
 273 00b6 B3F5407F 		cmp	r3, #768
 274 00ba 14D1     		bne	.L50
 275 00bc 1368     		ldr	r3, [r2]
 276 00be 0F48     		ldr	r0, .L56+16
 277 00c0 13F4003F 		tst	r3, #131072
 278              	.L55:
 279 00c4 08BF     		it	eq
 280 00c6 0020     		moveq	r0, #0
 281 00c8 0EE0     		b	.L36
 282              	.L39:
 283 00ca FFF7FEFF 		bl	HAL_RCC_GetPCLK2Freq
 284 00ce 084B     		ldr	r3, .L56+4
 285 00d0 5B68     		ldr	r3, [r3, #4]
 286 00d2 C3F38133 		ubfx	r3, r3, #14, #2
 287 00d6 0133     		adds	r3, r3, #1
 288 00d8 5B00     		lsls	r3, r3, #1
 289              	.L54:
 290 00da B0FBF3F0 		udiv	r0, r0, r3
ARM GAS  /tmp/cc9OaTuY.s 			page 6


 291 00de 03E0     		b	.L36
 292              	.L48:
 293 00e0 4FF40040 		mov	r0, #32768
 294 00e4 00E0     		b	.L36
 295              	.L50:
 296 00e6 0020     		movs	r0, #0
 297              	.L36:
 298 00e8 07B0     		add	sp, sp, #28
 299              		@ sp needed
 300 00ea F0BD     		pop	{r4, r5, r6, r7, pc}
 301              	.L57:
 302              		.align	2
 303              	.L56:
 304 00ec 00000000 		.word	.LANCHOR0
 305 00f0 00100240 		.word	1073876992
 306 00f4 0024F400 		.word	16000000
 307 00f8 00093D00 		.word	4000000
 308 00fc 48E80100 		.word	125000
 310              		.section	.rodata
 311              		.set	.LANCHOR0,. + 0
 312              	.LC0:
 313 0000 02       		.byte	2
 314 0001 03       		.byte	3
 315 0002 04       		.byte	4
 316 0003 05       		.byte	5
 317 0004 06       		.byte	6
 318 0005 07       		.byte	7
 319 0006 08       		.byte	8
 320 0007 09       		.byte	9
 321 0008 0A       		.byte	10
 322 0009 0B       		.byte	11
 323 000a 0C       		.byte	12
 324 000b 0D       		.byte	13
 325 000c 0E       		.byte	14
 326 000d 0F       		.byte	15
 327 000e 10       		.byte	16
 328 000f 10       		.byte	16
 329              	.LC1:
 330 0010 01       		.byte	1
 331 0011 02       		.byte	2
 332              		.ident	"GCC: (15:4.9.3+svn231177-1) 4.9.3 20150529 (prerelease)"
ARM GAS  /tmp/cc9OaTuY.s 			page 7

