ARM GAS  /tmp/cci7gJq5.s 			page 1


   1              		.syntax unified
   2              		.cpu cortex-m3
   3              		.fpu softvfp
   4              		.eabi_attribute 20, 1
   5              		.eabi_attribute 21, 1
   6              		.eabi_attribute 23, 3
   7              		.eabi_attribute 24, 1
   8              		.eabi_attribute 25, 1
   9              		.eabi_attribute 26, 1
  10              		.eabi_attribute 30, 4
  11              		.eabi_attribute 34, 1
  12              		.eabi_attribute 18, 4
  13              		.thumb
  14              		.file	"stm32f1xx_hal_pccard.c"
  15              		.section	.text.HAL_PCCARD_MspInit,"ax",%progbits
  16              		.align	1
  17              		.weak	HAL_PCCARD_MspInit
  18              		.thumb
  19              		.thumb_func
  21              	HAL_PCCARD_MspInit:
  22              		@ args = 0, pretend = 0, frame = 0
  23              		@ frame_needed = 0, uses_anonymous_args = 0
  24              		@ link register save eliminated.
  25 0000 7047     		bx	lr
  27              		.section	.text.HAL_PCCARD_Init,"ax",%progbits
  28              		.align	1
  29              		.global	HAL_PCCARD_Init
  30              		.thumb
  31              		.thumb_func
  33              	HAL_PCCARD_Init:
  34              		@ args = 0, pretend = 0, frame = 0
  35              		@ frame_needed = 0, uses_anonymous_args = 0
  36 0000 F8B5     		push	{r3, r4, r5, r6, r7, lr}
  37 0002 0F46     		mov	r7, r1
  38 0004 1646     		mov	r6, r2
  39 0006 1D46     		mov	r5, r3
  40 0008 0446     		mov	r4, r0
  41 000a 08B3     		cbz	r0, .L5
  42 000c 037C     		ldrb	r3, [r0, #16]	@ zero_extendqisi2
  43 000e 03F0FF02 		and	r2, r3, #255
  44 0012 13B9     		cbnz	r3, .L4
  45 0014 4274     		strb	r2, [r0, #17]
  46 0016 FFF7FEFF 		bl	HAL_PCCARD_MspInit
  47              	.L4:
  48 001a 0223     		movs	r3, #2
  49 001c 2374     		strb	r3, [r4, #16]
  50 001e 211D     		adds	r1, r4, #4
  51 0020 2068     		ldr	r0, [r4]
  52 0022 FFF7FEFF 		bl	FSMC_PCCARD_Init
  53 0026 3946     		mov	r1, r7
  54 0028 2068     		ldr	r0, [r4]
  55 002a FFF7FEFF 		bl	FSMC_PCCARD_CommonSpace_Timing_Init
  56 002e 3146     		mov	r1, r6
  57 0030 2068     		ldr	r0, [r4]
  58 0032 FFF7FEFF 		bl	FSMC_PCCARD_AttributeSpace_Timing_Init
  59 0036 2068     		ldr	r0, [r4]
  60 0038 2946     		mov	r1, r5
ARM GAS  /tmp/cci7gJq5.s 			page 2


  61 003a FFF7FEFF 		bl	FSMC_PCCARD_IOSpace_Timing_Init
  62 003e 2268     		ldr	r2, [r4]
  63 0040 0020     		movs	r0, #0
  64 0042 1368     		ldr	r3, [r2]
  65 0044 43F00403 		orr	r3, r3, #4
  66 0048 1360     		str	r3, [r2]
  67 004a 0123     		movs	r3, #1
  68 004c 2374     		strb	r3, [r4, #16]
  69 004e F8BD     		pop	{r3, r4, r5, r6, r7, pc}
  70              	.L5:
  71 0050 0120     		movs	r0, #1
  72 0052 F8BD     		pop	{r3, r4, r5, r6, r7, pc}
  74              		.section	.text.HAL_PCCARD_MspDeInit,"ax",%progbits
  75              		.align	1
  76              		.weak	HAL_PCCARD_MspDeInit
  77              		.thumb
  78              		.thumb_func
  80              	HAL_PCCARD_MspDeInit:
  81              		@ args = 0, pretend = 0, frame = 0
  82              		@ frame_needed = 0, uses_anonymous_args = 0
  83              		@ link register save eliminated.
  84 0000 7047     		bx	lr
  86              		.section	.text.HAL_PCCARD_DeInit,"ax",%progbits
  87              		.align	1
  88              		.global	HAL_PCCARD_DeInit
  89              		.thumb
  90              		.thumb_func
  92              	HAL_PCCARD_DeInit:
  93              		@ args = 0, pretend = 0, frame = 0
  94              		@ frame_needed = 0, uses_anonymous_args = 0
  95 0000 10B5     		push	{r4, lr}
  96 0002 0446     		mov	r4, r0
  97 0004 FFF7FEFF 		bl	HAL_PCCARD_MspDeInit
  98 0008 2068     		ldr	r0, [r4]
  99 000a FFF7FEFF 		bl	FSMC_PCCARD_DeInit
 100 000e 0020     		movs	r0, #0
 101 0010 2074     		strb	r0, [r4, #16]
 102 0012 6074     		strb	r0, [r4, #17]
 103 0014 10BD     		pop	{r4, pc}
 105              		.section	.text.HAL_PCCARD_Read_ID,"ax",%progbits
 106              		.align	1
 107              		.global	HAL_PCCARD_Read_ID
 108              		.thumb
 109              		.thumb_func
 111              	HAL_PCCARD_Read_ID:
 112              		@ args = 0, pretend = 0, frame = 0
 113              		@ frame_needed = 0, uses_anonymous_args = 0
 114 0000 437C     		ldrb	r3, [r0, #17]	@ zero_extendqisi2
 115 0002 10B5     		push	{r4, lr}
 116 0004 012B     		cmp	r3, #1
 117 0006 01D1     		bne	.L10
 118              	.L12:
 119 0008 0220     		movs	r0, #2
 120 000a 10BD     		pop	{r4, pc}
 121              	.L10:
 122 000c 0123     		movs	r3, #1
 123 000e 4374     		strb	r3, [r0, #17]
ARM GAS  /tmp/cci7gJq5.s 			page 3


 124 0010 037C     		ldrb	r3, [r0, #16]	@ zero_extendqisi2
 125 0012 022B     		cmp	r3, #2
 126 0014 F8D0     		beq	.L12
 127 0016 0223     		movs	r3, #2
 128 0018 0374     		strb	r3, [r0, #16]
 129 001a 4023     		movs	r3, #64
 130 001c 1370     		strb	r3, [r2]
 131 001e 104B     		ldr	r3, .L24
 132 0020 1C88     		ldrh	r4, [r3]
 133 0022 4EF6EC44 		movw	r4, #60652
 134 0026 1C80     		strh	r4, [r3]	@ movhi
 135 0028 4FF6FF73 		movw	r3, #65535
 136              	.L14:
 137 002c 0D4C     		ldr	r4, .L24+4
 138 002e 013B     		subs	r3, r3, #1
 139 0030 2478     		ldrb	r4, [r4]	@ zero_extendqisi2
 140 0032 582C     		cmp	r4, #88
 141 0034 02D0     		beq	.L13
 142 0036 002B     		cmp	r3, #0
 143 0038 F8D1     		bne	.L14
 144 003a 00E0     		b	.L15
 145              	.L13:
 146 003c 13B9     		cbnz	r3, .L16
 147              	.L15:
 148 003e 6023     		movs	r3, #96
 149 0040 1370     		strb	r3, [r2]
 150 0042 07E0     		b	.L17
 151              	.L16:
 152 0044 4B1E     		subs	r3, r1, #1
 153 0046 0F31     		adds	r1, r1, #15
 154              	.L18:
 155 0048 074A     		ldr	r2, .L24+8
 156 004a 1278     		ldrb	r2, [r2]	@ zero_extendqisi2
 157 004c 03F8012F 		strb	r2, [r3, #1]!
 158 0050 8B42     		cmp	r3, r1
 159 0052 F9D1     		bne	.L18
 160              	.L17:
 161 0054 0123     		movs	r3, #1
 162 0056 0374     		strb	r3, [r0, #16]
 163 0058 0023     		movs	r3, #0
 164 005a 4374     		strb	r3, [r0, #17]
 165 005c 1846     		mov	r0, r3
 166 005e 10BD     		pop	{r4, pc}
 167              	.L25:
 168              		.align	2
 169              	.L24:
 170 0060 F701009C 		.word	-1677721097
 171 0064 FE01009C 		.word	-1677721090
 172 0068 F001009C 		.word	-1677721104
 174              		.section	.text.HAL_PCCARD_Read_Sector,"ax",%progbits
 175              		.align	1
 176              		.global	HAL_PCCARD_Read_Sector
 177              		.thumb
 178              		.thumb_func
 180              	HAL_PCCARD_Read_Sector:
 181              		@ args = 0, pretend = 0, frame = 0
 182              		@ frame_needed = 0, uses_anonymous_args = 0
ARM GAS  /tmp/cci7gJq5.s 			page 4


 183 0000 30B5     		push	{r4, r5, lr}
 184 0002 447C     		ldrb	r4, [r0, #17]	@ zero_extendqisi2
 185 0004 012C     		cmp	r4, #1
 186 0006 01D1     		bne	.L27
 187              	.L29:
 188 0008 0220     		movs	r0, #2
 189 000a 30BD     		pop	{r4, r5, pc}
 190              	.L27:
 191 000c 0124     		movs	r4, #1
 192 000e 4474     		strb	r4, [r0, #17]
 193 0010 047C     		ldrb	r4, [r0, #16]	@ zero_extendqisi2
 194 0012 022C     		cmp	r4, #2
 195 0014 F8D0     		beq	.L29
 196 0016 0224     		movs	r4, #2
 197 0018 0474     		strb	r4, [r0, #16]
 198 001a 4024     		movs	r4, #64
 199 001c 1C70     		strb	r4, [r3]
 200 001e 1B4C     		ldr	r4, .L45
 201 0020 42F48072 		orr	r2, r2, #256
 202 0024 2588     		ldrh	r5, [r4]
 203 0026 0025     		movs	r5, #0
 204 0028 2580     		strh	r5, [r4]	@ movhi
 205 002a 24F8032C 		strh	r2, [r4, #-3]	@ movhi
 206 002e 184A     		ldr	r2, .L45+4
 207 0030 1488     		ldrh	r4, [r2]
 208 0032 4EF2A044 		movw	r4, #58528
 209 0036 1480     		strh	r4, [r2]	@ movhi
 210 0038 4FF6FF72 		movw	r2, #65535
 211              	.L31:
 212 003c 154C     		ldr	r4, .L45+8
 213 003e 013A     		subs	r2, r2, #1
 214 0040 2488     		ldrh	r4, [r4]
 215 0042 E4B2     		uxtb	r4, r4
 216 0044 802C     		cmp	r4, #128
 217 0046 02D1     		bne	.L30
 218 0048 002A     		cmp	r2, #0
 219 004a F7D1     		bne	.L31
 220 004c 00E0     		b	.L32
 221              	.L30:
 222 004e 0AB9     		cbnz	r2, .L33
 223              	.L32:
 224 0050 6022     		movs	r2, #96
 225 0052 1A70     		strb	r2, [r3]
 226              	.L33:
 227 0054 4FF6FF72 		movw	r2, #65535
 228              	.L35:
 229 0058 0E4C     		ldr	r4, .L45+8
 230 005a 013A     		subs	r2, r2, #1
 231 005c 2488     		ldrh	r4, [r4]
 232 005e E4B2     		uxtb	r4, r4
 233 0060 582C     		cmp	r4, #88
 234 0062 02D0     		beq	.L34
 235 0064 002A     		cmp	r2, #0
 236 0066 F7D1     		bne	.L35
 237 0068 00E0     		b	.L36
 238              	.L34:
 239 006a 0AB9     		cbnz	r2, .L37
ARM GAS  /tmp/cci7gJq5.s 			page 5


 240              	.L36:
 241 006c 6022     		movs	r2, #96
 242 006e 1A70     		strb	r2, [r3]
 243              	.L37:
 244 0070 01F5FF73 		add	r3, r1, #510
 245              	.L38:
 246 0074 084A     		ldr	r2, .L45+12
 247 0076 1288     		ldrh	r2, [r2]
 248 0078 21F8022B 		strh	r2, [r1], #2	@ movhi
 249 007c 9942     		cmp	r1, r3
 250 007e F9D1     		bne	.L38
 251 0080 0123     		movs	r3, #1
 252 0082 0374     		strb	r3, [r0, #16]
 253 0084 0023     		movs	r3, #0
 254 0086 4374     		strb	r3, [r0, #17]
 255 0088 1846     		mov	r0, r3
 256 008a 30BD     		pop	{r4, r5, pc}
 257              	.L46:
 258              		.align	2
 259              	.L45:
 260 008c F501009C 		.word	-1677721099
 261 0090 F701009C 		.word	-1677721097
 262 0094 FE01009C 		.word	-1677721090
 263 0098 F001009C 		.word	-1677721104
 265              		.section	.text.HAL_PCCARD_Write_Sector,"ax",%progbits
 266              		.align	1
 267              		.global	HAL_PCCARD_Write_Sector
 268              		.thumb
 269              		.thumb_func
 271              	HAL_PCCARD_Write_Sector:
 272              		@ args = 0, pretend = 0, frame = 0
 273              		@ frame_needed = 0, uses_anonymous_args = 0
 274 0000 70B5     		push	{r4, r5, r6, lr}
 275 0002 447C     		ldrb	r4, [r0, #17]	@ zero_extendqisi2
 276 0004 012C     		cmp	r4, #1
 277 0006 01D1     		bne	.L48
 278              	.L50:
 279 0008 0220     		movs	r0, #2
 280 000a 70BD     		pop	{r4, r5, r6, pc}
 281              	.L48:
 282 000c 0124     		movs	r4, #1
 283 000e 4474     		strb	r4, [r0, #17]
 284 0010 047C     		ldrb	r4, [r0, #16]	@ zero_extendqisi2
 285 0012 022C     		cmp	r4, #2
 286 0014 F8D0     		beq	.L50
 287 0016 0224     		movs	r4, #2
 288 0018 0474     		strb	r4, [r0, #16]
 289 001a 4024     		movs	r4, #64
 290 001c 1C70     		strb	r4, [r3]
 291 001e 1A4C     		ldr	r4, .L66
 292 0020 42F48072 		orr	r2, r2, #256
 293 0024 2588     		ldrh	r5, [r4]
 294 0026 0025     		movs	r5, #0
 295 0028 2580     		strh	r5, [r4]	@ movhi
 296 002a 24F8032C 		strh	r2, [r4, #-3]	@ movhi
 297 002e 174A     		ldr	r2, .L66+4
 298 0030 1488     		ldrh	r4, [r2]
ARM GAS  /tmp/cci7gJq5.s 			page 6


 299 0032 43F2A004 		movw	r4, #12448
 300 0036 1480     		strh	r4, [r2]	@ movhi
 301 0038 4FF6FF72 		movw	r2, #65535
 302              	.L52:
 303 003c 144C     		ldr	r4, .L66+8
 304 003e 013A     		subs	r2, r2, #1
 305 0040 2478     		ldrb	r4, [r4]	@ zero_extendqisi2
 306 0042 582C     		cmp	r4, #88
 307 0044 02D0     		beq	.L51
 308 0046 002A     		cmp	r2, #0
 309 0048 F8D1     		bne	.L52
 310 004a 00E0     		b	.L53
 311              	.L51:
 312 004c 12B9     		cbnz	r2, .L54
 313              	.L53:
 314 004e 6022     		movs	r2, #96
 315 0050 1A70     		strb	r2, [r3]
 316 0052 0022     		movs	r2, #0
 317              	.L54:
 318 0054 01F5FF74 		add	r4, r1, #510
 319              	.L55:
 320 0058 31F8026B 		ldrh	r6, [r1], #2
 321 005c 0D4D     		ldr	r5, .L66+12
 322 005e A142     		cmp	r1, r4
 323 0060 2E80     		strh	r6, [r5]	@ movhi
 324 0062 F9D1     		bne	.L55
 325              	.L57:
 326 0064 0A49     		ldr	r1, .L66+8
 327 0066 013A     		subs	r2, r2, #1
 328 0068 0978     		ldrb	r1, [r1]	@ zero_extendqisi2
 329 006a 5029     		cmp	r1, #80
 330 006c 02D0     		beq	.L56
 331 006e 002A     		cmp	r2, #0
 332 0070 F8D1     		bne	.L57
 333 0072 00E0     		b	.L58
 334              	.L56:
 335 0074 0AB9     		cbnz	r2, .L59
 336              	.L58:
 337 0076 6022     		movs	r2, #96
 338 0078 1A70     		strb	r2, [r3]
 339              	.L59:
 340 007a 0123     		movs	r3, #1
 341 007c 0374     		strb	r3, [r0, #16]
 342 007e 0023     		movs	r3, #0
 343 0080 4374     		strb	r3, [r0, #17]
 344 0082 1846     		mov	r0, r3
 345 0084 70BD     		pop	{r4, r5, r6, pc}
 346              	.L67:
 347 0086 00BF     		.align	2
 348              	.L66:
 349 0088 F501009C 		.word	-1677721099
 350 008c F701009C 		.word	-1677721097
 351 0090 FE01009C 		.word	-1677721090
 352 0094 F001009C 		.word	-1677721104
 354              		.section	.text.HAL_PCCARD_Erase_Sector,"ax",%progbits
 355              		.align	1
 356              		.global	HAL_PCCARD_Erase_Sector
ARM GAS  /tmp/cci7gJq5.s 			page 7


 357              		.thumb
 358              		.thumb_func
 360              	HAL_PCCARD_Erase_Sector:
 361              		@ args = 0, pretend = 0, frame = 0
 362              		@ frame_needed = 0, uses_anonymous_args = 0
 363 0000 437C     		ldrb	r3, [r0, #17]	@ zero_extendqisi2
 364 0002 30B5     		push	{r4, r5, lr}
 365 0004 012B     		cmp	r3, #1
 366 0006 01D1     		bne	.L69
 367              	.L71:
 368 0008 0220     		movs	r0, #2
 369 000a 30BD     		pop	{r4, r5, pc}
 370              	.L69:
 371 000c 047C     		ldrb	r4, [r0, #16]	@ zero_extendqisi2
 372 000e 0123     		movs	r3, #1
 373 0010 022C     		cmp	r4, #2
 374 0012 4374     		strb	r3, [r0, #17]
 375 0014 F8D0     		beq	.L71
 376 0016 0224     		movs	r4, #2
 377 0018 0474     		strb	r4, [r0, #16]
 378 001a 134D     		ldr	r5, .L80
 379 001c 4024     		movs	r4, #64
 380 001e 1470     		strb	r4, [r2]
 381 0020 0024     		movs	r4, #0
 382 0022 2C70     		strb	r4, [r5]
 383 0024 6C70     		strb	r4, [r5, #1]
 384 0026 114C     		ldr	r4, .L80+4
 385 0028 C9B2     		uxtb	r1, r1
 386 002a 2170     		strb	r1, [r4]
 387 002c 1049     		ldr	r1, .L80+8
 388 002e 0B70     		strb	r3, [r1]
 389 0030 104B     		ldr	r3, .L80+12
 390 0032 A021     		movs	r1, #160
 391 0034 1970     		strb	r1, [r3]
 392 0036 C021     		movs	r1, #192
 393 0038 5970     		strb	r1, [r3, #1]
 394 003a 0833     		adds	r3, r3, #8
 395 003c 1B78     		ldrb	r3, [r3]	@ zero_extendqisi2
 396 003e 4FF48061 		mov	r1, #1024
 397 0042 DBB2     		uxtb	r3, r3
 398              	.L72:
 399 0044 502B     		cmp	r3, #80
 400 0046 05D0     		beq	.L73
 401 0048 29B1     		cbz	r1, .L75
 402 004a 0B4B     		ldr	r3, .L80+16
 403 004c 0139     		subs	r1, r1, #1
 404 004e 1B78     		ldrb	r3, [r3]	@ zero_extendqisi2
 405 0050 DBB2     		uxtb	r3, r3
 406 0052 F7E7     		b	.L72
 407              	.L73:
 408 0054 09B9     		cbnz	r1, .L76
 409              	.L75:
 410 0056 6023     		movs	r3, #96
 411 0058 1370     		strb	r3, [r2]
 412              	.L76:
 413 005a 0123     		movs	r3, #1
 414 005c 0374     		strb	r3, [r0, #16]
ARM GAS  /tmp/cci7gJq5.s 			page 8


 415 005e 0023     		movs	r3, #0
 416 0060 4374     		strb	r3, [r0, #17]
 417 0062 1846     		mov	r0, r3
 418 0064 30BD     		pop	{r4, r5, pc}
 419              	.L81:
 420 0066 00BF     		.align	2
 421              	.L80:
 422 0068 F401009C 		.word	-1677721100
 423 006c F301009C 		.word	-1677721101
 424 0070 F201009C 		.word	-1677721102
 425 0074 F601009C 		.word	-1677721098
 426 0078 FE01009C 		.word	-1677721090
 428              		.section	.text.HAL_PCCARD_Reset,"ax",%progbits
 429              		.align	1
 430              		.global	HAL_PCCARD_Reset
 431              		.thumb
 432              		.thumb_func
 434              	HAL_PCCARD_Reset:
 435              		@ args = 0, pretend = 0, frame = 0
 436              		@ frame_needed = 0, uses_anonymous_args = 0
 437              		@ link register save eliminated.
 438 0000 437C     		ldrb	r3, [r0, #17]	@ zero_extendqisi2
 439 0002 012B     		cmp	r3, #1
 440 0004 01D1     		bne	.L83
 441              	.L85:
 442 0006 0220     		movs	r0, #2
 443 0008 7047     		bx	lr
 444              	.L83:
 445 000a 027C     		ldrb	r2, [r0, #16]	@ zero_extendqisi2
 446 000c 0123     		movs	r3, #1
 447 000e 022A     		cmp	r2, #2
 448 0010 4374     		strb	r3, [r0, #17]
 449 0012 F8D0     		beq	.L85
 450 0014 0222     		movs	r2, #2
 451 0016 0274     		strb	r2, [r0, #16]
 452 0018 034A     		ldr	r2, .L89
 453 001a 1370     		strb	r3, [r2]
 454 001c 0374     		strb	r3, [r0, #16]
 455 001e 0023     		movs	r3, #0
 456 0020 4374     		strb	r3, [r0, #17]
 457 0022 1846     		mov	r0, r3
 458 0024 7047     		bx	lr
 459              	.L90:
 460 0026 00BF     		.align	2
 461              	.L89:
 462 0028 02020098 		.word	-1744829950
 464              		.section	.text.HAL_PCCARD_ITCallback,"ax",%progbits
 465              		.align	1
 466              		.weak	HAL_PCCARD_ITCallback
 467              		.thumb
 468              		.thumb_func
 470              	HAL_PCCARD_ITCallback:
 471              		@ args = 0, pretend = 0, frame = 0
 472              		@ frame_needed = 0, uses_anonymous_args = 0
 473              		@ link register save eliminated.
 474 0000 7047     		bx	lr
 476              		.section	.text.HAL_PCCARD_IRQHandler,"ax",%progbits
ARM GAS  /tmp/cci7gJq5.s 			page 9


 477              		.align	1
 478              		.global	HAL_PCCARD_IRQHandler
 479              		.thumb
 480              		.thumb_func
 482              	HAL_PCCARD_IRQHandler:
 483              		@ args = 0, pretend = 0, frame = 0
 484              		@ frame_needed = 0, uses_anonymous_args = 0
 485 0000 0368     		ldr	r3, [r0]
 486 0002 10B5     		push	{r4, lr}
 487 0004 5B68     		ldr	r3, [r3, #4]
 488 0006 0446     		mov	r4, r0
 489 0008 DB07     		lsls	r3, r3, #31
 490 000a 06D5     		bpl	.L93
 491 000c FFF7FEFF 		bl	HAL_PCCARD_ITCallback
 492 0010 2268     		ldr	r2, [r4]
 493 0012 5368     		ldr	r3, [r2, #4]
 494 0014 23F00103 		bic	r3, r3, #1
 495 0018 5360     		str	r3, [r2, #4]
 496              	.L93:
 497 001a 2368     		ldr	r3, [r4]
 498 001c 5B68     		ldr	r3, [r3, #4]
 499 001e 9907     		lsls	r1, r3, #30
 500 0020 07D5     		bpl	.L94
 501 0022 2046     		mov	r0, r4
 502 0024 FFF7FEFF 		bl	HAL_PCCARD_ITCallback
 503 0028 2268     		ldr	r2, [r4]
 504 002a 5368     		ldr	r3, [r2, #4]
 505 002c 23F00203 		bic	r3, r3, #2
 506 0030 5360     		str	r3, [r2, #4]
 507              	.L94:
 508 0032 2368     		ldr	r3, [r4]
 509 0034 5B68     		ldr	r3, [r3, #4]
 510 0036 5A07     		lsls	r2, r3, #29
 511 0038 07D5     		bpl	.L95
 512 003a 2046     		mov	r0, r4
 513 003c FFF7FEFF 		bl	HAL_PCCARD_ITCallback
 514 0040 2268     		ldr	r2, [r4]
 515 0042 5368     		ldr	r3, [r2, #4]
 516 0044 23F00403 		bic	r3, r3, #4
 517 0048 5360     		str	r3, [r2, #4]
 518              	.L95:
 519 004a 2368     		ldr	r3, [r4]
 520 004c 5B68     		ldr	r3, [r3, #4]
 521 004e 5B06     		lsls	r3, r3, #25
 522 0050 07D5     		bpl	.L92
 523 0052 2046     		mov	r0, r4
 524 0054 FFF7FEFF 		bl	HAL_PCCARD_ITCallback
 525 0058 2268     		ldr	r2, [r4]
 526 005a 5368     		ldr	r3, [r2, #4]
 527 005c 23F04003 		bic	r3, r3, #64
 528 0060 5360     		str	r3, [r2, #4]
 529              	.L92:
 530 0062 10BD     		pop	{r4, pc}
 532              		.section	.text.HAL_PCCARD_GetState,"ax",%progbits
 533              		.align	1
 534              		.global	HAL_PCCARD_GetState
 535              		.thumb
ARM GAS  /tmp/cci7gJq5.s 			page 10


 536              		.thumb_func
 538              	HAL_PCCARD_GetState:
 539              		@ args = 0, pretend = 0, frame = 0
 540              		@ frame_needed = 0, uses_anonymous_args = 0
 541              		@ link register save eliminated.
 542 0000 007C     		ldrb	r0, [r0, #16]	@ zero_extendqisi2
 543 0002 7047     		bx	lr
 545              		.section	.text.HAL_PCCARD_GetStatus,"ax",%progbits
 546              		.align	1
 547              		.global	HAL_PCCARD_GetStatus
 548              		.thumb
 549              		.thumb_func
 551              	HAL_PCCARD_GetStatus:
 552              		@ args = 0, pretend = 0, frame = 0
 553              		@ frame_needed = 0, uses_anonymous_args = 0
 554              		@ link register save eliminated.
 555 0000 037C     		ldrb	r3, [r0, #16]	@ zero_extendqisi2
 556 0002 022B     		cmp	r3, #2
 557 0004 13D0     		beq	.L116
 558 0006 0B4B     		ldr	r3, .L118
 559 0008 1878     		ldrb	r0, [r3]	@ zero_extendqisi2
 560 000a 4FF08073 		mov	r3, #16777216
 561 000e C0B2     		uxtb	r0, r0
 562              	.L112:
 563 0010 8028     		cmp	r0, #128
 564 0012 07D1     		bne	.L113
 565 0014 23B1     		cbz	r3, .L117
 566 0016 074A     		ldr	r2, .L118
 567 0018 013B     		subs	r3, r3, #1
 568 001a 1078     		ldrb	r0, [r2]	@ zero_extendqisi2
 569 001c C0B2     		uxtb	r0, r0
 570 001e F7E7     		b	.L112
 571              	.L117:
 572 0020 6020     		movs	r0, #96
 573 0022 02E0     		b	.L115
 574              	.L113:
 575 0024 002B     		cmp	r3, #0
 576 0026 08BF     		it	eq
 577 0028 6020     		moveq	r0, #96
 578              	.L115:
 579 002a C0B2     		uxtb	r0, r0
 580 002c 7047     		bx	lr
 581              	.L116:
 582 002e 0120     		movs	r0, #1
 583 0030 7047     		bx	lr
 584              	.L119:
 585 0032 00BF     		.align	2
 586              	.L118:
 587 0034 FE01009C 		.word	-1677721090
 589              		.section	.text.HAL_PCCARD_ReadStatus,"ax",%progbits
 590              		.align	1
 591              		.global	HAL_PCCARD_ReadStatus
 592              		.thumb
 593              		.thumb_func
 595              	HAL_PCCARD_ReadStatus:
 596              		@ args = 0, pretend = 0, frame = 0
 597              		@ frame_needed = 0, uses_anonymous_args = 0
ARM GAS  /tmp/cci7gJq5.s 			page 11


 598              		@ link register save eliminated.
 599 0000 037C     		ldrb	r3, [r0, #16]	@ zero_extendqisi2
 600 0002 022B     		cmp	r3, #2
 601 0004 0CD0     		beq	.L122
 602 0006 074B     		ldr	r3, .L125
 603 0008 1B78     		ldrb	r3, [r3]	@ zero_extendqisi2
 604 000a DBB2     		uxtb	r3, r3
 605 000c 03F06000 		and	r0, r3, #96
 606 0010 6028     		cmp	r0, #96
 607 0012 06D0     		beq	.L121
 608 0014 13F0400F 		tst	r3, #64
 609 0018 0CBF     		ite	eq
 610 001a 8020     		moveq	r0, #128
 611 001c 4020     		movne	r0, #64
 612 001e 7047     		bx	lr
 613              	.L122:
 614 0020 0120     		movs	r0, #1
 615              	.L121:
 616 0022 7047     		bx	lr
 617              	.L126:
 618              		.align	2
 619              	.L125:
 620 0024 FE01009C 		.word	-1677721090
 622              		.ident	"GCC: (15:4.9.3+svn231177-1) 4.9.3 20150529 (prerelease)"
ARM GAS  /tmp/cci7gJq5.s 			page 12

