ARM GAS  /tmp/ccEpXnUj.s 			page 1


   1              		.syntax unified
   2              		.cpu cortex-m3
   3              		.fpu softvfp
   4              		.eabi_attribute 20, 1
   5              		.eabi_attribute 21, 1
   6              		.eabi_attribute 23, 3
   7              		.eabi_attribute 24, 1
   8              		.eabi_attribute 25, 1
   9              		.eabi_attribute 26, 1
  10              		.eabi_attribute 30, 4
  11              		.eabi_attribute 34, 1
  12              		.eabi_attribute 18, 4
  13              		.thumb
  14              		.file	"mcu_init.c"
  15              		.section	.text.SystemInit,"ax",%progbits
  16              		.align	1
  17              		.global	SystemInit
  18              		.thumb
  19              		.thumb_func
  21              	SystemInit:
  22              		@ args = 0, pretend = 0, frame = 0
  23              		@ frame_needed = 0, uses_anonymous_args = 0
  24              		@ link register save eliminated.
  25 0000 0F4B     		ldr	r3, .L2
  26 0002 1A68     		ldr	r2, [r3]
  27 0004 42F00102 		orr	r2, r2, #1
  28 0008 1A60     		str	r2, [r3]
  29 000a 5968     		ldr	r1, [r3, #4]
  30 000c 0D4A     		ldr	r2, .L2+4
  31 000e 0A40     		ands	r2, r2, r1
  32 0010 5A60     		str	r2, [r3, #4]
  33 0012 1A68     		ldr	r2, [r3]
  34 0014 22F08472 		bic	r2, r2, #17301504
  35 0018 22F48032 		bic	r2, r2, #65536
  36 001c 1A60     		str	r2, [r3]
  37 001e 1A68     		ldr	r2, [r3]
  38 0020 22F48022 		bic	r2, r2, #262144
  39 0024 1A60     		str	r2, [r3]
  40 0026 5A68     		ldr	r2, [r3, #4]
  41 0028 22F4FE02 		bic	r2, r2, #8323072
  42 002c 5A60     		str	r2, [r3, #4]
  43 002e 4FF41F02 		mov	r2, #10420224
  44 0032 9A60     		str	r2, [r3, #8]
  45 0034 044B     		ldr	r3, .L2+8
  46 0036 4FF00062 		mov	r2, #134217728
  47 003a 9A60     		str	r2, [r3, #8]
  48 003c 7047     		bx	lr
  49              	.L3:
  50 003e 00BF     		.align	2
  51              	.L2:
  52 0040 00100240 		.word	1073876992
  53 0044 0000FFF8 		.word	-117506048
  54 0048 00ED00E0 		.word	-536810240
  56              		.section	.text.SystemCoreClockUpdate,"ax",%progbits
  57              		.align	1
  58              		.global	SystemCoreClockUpdate
  59              		.thumb
ARM GAS  /tmp/ccEpXnUj.s 			page 2


  60              		.thumb_func
  62              	SystemCoreClockUpdate:
  63              		@ args = 0, pretend = 0, frame = 0
  64              		@ frame_needed = 0, uses_anonymous_args = 0
  65              		@ link register save eliminated.
  66 0000 134A     		ldr	r2, .L15
  67 0002 144B     		ldr	r3, .L15+4
  68 0004 5168     		ldr	r1, [r2, #4]
  69 0006 01F00C01 		and	r1, r1, #12
  70 000a 0429     		cmp	r1, #4
  71 000c 03D0     		beq	.L6
  72 000e 0829     		cmp	r1, #8
  73 0010 03D0     		beq	.L7
  74 0012 1149     		ldr	r1, .L15+8
  75 0014 11E0     		b	.L12
  76              	.L6:
  77 0016 1149     		ldr	r1, .L15+12
  78 0018 0FE0     		b	.L12
  79              	.L7:
  80 001a 5168     		ldr	r1, [r2, #4]
  81 001c 5068     		ldr	r0, [r2, #4]
  82 001e C1F38341 		ubfx	r1, r1, #18, #4
  83 0022 C003     		lsls	r0, r0, #15
  84 0024 01F10201 		add	r1, r1, #2
  85 0028 01D4     		bmi	.L10
  86 002a 0D48     		ldr	r0, .L15+16
  87 002c 04E0     		b	.L13
  88              	.L10:
  89 002e 5068     		ldr	r0, [r2, #4]
  90 0030 8003     		lsls	r0, r0, #14
  91 0032 4CBF     		ite	mi
  92 0034 0848     		ldrmi	r0, .L15+8
  93 0036 0948     		ldrpl	r0, .L15+12
  94              	.L13:
  95 0038 4143     		muls	r1, r0, r1
  96              	.L12:
  97 003a 1960     		str	r1, [r3]
  98 003c 5268     		ldr	r2, [r2, #4]
  99 003e 0949     		ldr	r1, .L15+20
 100 0040 C2F30312 		ubfx	r2, r2, #4, #4
 101 0044 895C     		ldrb	r1, [r1, r2]	@ zero_extendqisi2
 102 0046 1A68     		ldr	r2, [r3]
 103 0048 CA40     		lsrs	r2, r2, r1
 104 004a 1A60     		str	r2, [r3]
 105 004c 7047     		bx	lr
 106              	.L16:
 107 004e 00BF     		.align	2
 108              	.L15:
 109 0050 00100240 		.word	1073876992
 110 0054 00000000 		.word	.LANCHOR0
 111 0058 00127A00 		.word	8000000
 112 005c 0024F400 		.word	16000000
 113 0060 00093D00 		.word	4000000
 114 0064 00000000 		.word	.LANCHOR1
 116              		.global	APBPrescTable
 117              		.global	AHBPrescTable
 118              		.global	SystemCoreClock
ARM GAS  /tmp/ccEpXnUj.s 			page 3


 119              		.section	.rodata.AHBPrescTable,"a",%progbits
 120              		.set	.LANCHOR1,. + 0
 123              	AHBPrescTable:
 124 0000 00       		.byte	0
 125 0001 00       		.byte	0
 126 0002 00       		.byte	0
 127 0003 00       		.byte	0
 128 0004 00       		.byte	0
 129 0005 00       		.byte	0
 130 0006 00       		.byte	0
 131 0007 00       		.byte	0
 132 0008 01       		.byte	1
 133 0009 02       		.byte	2
 134 000a 03       		.byte	3
 135 000b 04       		.byte	4
 136 000c 06       		.byte	6
 137 000d 07       		.byte	7
 138 000e 08       		.byte	8
 139 000f 09       		.byte	9
 140              		.section	.rodata.APBPrescTable,"a",%progbits
 143              	APBPrescTable:
 144 0000 00       		.byte	0
 145 0001 00       		.byte	0
 146 0002 00       		.byte	0
 147 0003 00       		.byte	0
 148 0004 01       		.byte	1
 149 0005 02       		.byte	2
 150 0006 03       		.byte	3
 151 0007 04       		.byte	4
 152              		.section	.data.SystemCoreClock,"aw",%progbits
 153              		.align	2
 154              		.set	.LANCHOR0,. + 0
 157              	SystemCoreClock:
 158 0000 0024F400 		.word	16000000
 159              		.ident	"GCC: (15:4.9.3+svn231177-1) 4.9.3 20150529 (prerelease)"
ARM GAS  /tmp/ccEpXnUj.s 			page 4


DEFINED SYMBOLS
                            *ABS*:0000000000000000 mcu_init.c
     /tmp/ccEpXnUj.s:16     .text.SystemInit:0000000000000000 $t
     /tmp/ccEpXnUj.s:21     .text.SystemInit:0000000000000000 SystemInit
     /tmp/ccEpXnUj.s:52     .text.SystemInit:0000000000000040 $d
     /tmp/ccEpXnUj.s:57     .text.SystemCoreClockUpdate:0000000000000000 $t
     /tmp/ccEpXnUj.s:62     .text.SystemCoreClockUpdate:0000000000000000 SystemCoreClockUpdate
     /tmp/ccEpXnUj.s:109    .text.SystemCoreClockUpdate:0000000000000050 $d
     /tmp/ccEpXnUj.s:143    .rodata.APBPrescTable:0000000000000000 APBPrescTable
     /tmp/ccEpXnUj.s:123    .rodata.AHBPrescTable:0000000000000000 AHBPrescTable
     /tmp/ccEpXnUj.s:157    .data.SystemCoreClock:0000000000000000 SystemCoreClock
     /tmp/ccEpXnUj.s:153    .data.SystemCoreClock:0000000000000000 $d

NO UNDEFINED SYMBOLS
